(lp0
(lp1
I200
aI134
aI145
aa(lp2
I146
aI134
aI145
aa(lp3
I146
aI200
aI145
aa(lp4
I146
aI200
aI134
aa(lp5
I156
aI183
aI145
aa(lp6
I181
aI183
aI145
aa(lp7
I181
aI156
aI145
aa(lp8
I181
aI156
aI183
aa(lp9
I114
aI200
aI116
aa(lp10
I181
aI200
aI116
aa(lp11
I181
aI114
aI116
aa(lp12
I181
aI114
aI200
aa(lp13
I146
aI41
aI145
aa(lp14
I149
aI41
aI145
aa(lp15
I149
aI146
aI145
aa(lp16
I149
aI146
aI41
aa(lp17
I100
aI114
aI200
aa(lp18
I100
aI181
aI200
aa(lp19
I100
aI181
aI114
aa(lp20
I180
aI181
aI114
aa(lp21
I100
aI180
aI114
aa(lp22
I100
aI180
aI181
aa(lp23
I67
aI134
aI145
aa(lp24
I67
aI146
aI145
aa(lp25
I67
aI146
aI134
aa(lp26
I67
aI149
aI145
aa(lp27
I67
aI149
aI146
aa(lp28
I149
aI146
aI134
aa(lp29
I67
aI149
aI134
aa(lp30
I149
aI150
aI134
aa(lp31
I67
aI150
aI134
aa(lp32
I67
aI149
aI150
aa(lp33
I67
aI41
aI145
aa(lp34
I67
aI149
aI41
aa(lp35
I135
aI200
aI134
aa(lp36
I121
aI200
aI134
aa(lp37
I121
aI135
aI134
aa(lp38
I121
aI135
aI200
aa(lp39
I46
aI137
aI7
aa(lp40
I45
aI137
aI7
aa(lp41
I45
aI46
aI7
aa(lp42
I45
aI46
aI137
aa(lp43
I45
aI200
aI134
aa(lp44
I45
aI121
aI134
aa(lp45
I45
aI121
aI200
aa(lp46
I198
aI97
aI183
aa(lp47
I184
aI97
aI183
aa(lp48
I184
aI198
aI183
aa(lp49
I184
aI198
aI97
aa(lp50
I181
aI97
aI183
aa(lp51
I184
aI181
aI183
aa(lp52
I184
aI181
aI97
aa(lp53
I180
aI181
aI183
aa(lp54
I184
aI180
aI183
aa(lp55
I184
aI180
aI181
aa(lp56
I45
aI137
aI150
aa(lp57
I140
aI137
aI150
aa(lp58
I140
aI45
aI150
aa(lp59
I140
aI45
aI137
aa(lp60
I45
aI150
aI134
aa(lp61
I140
aI150
aI134
aa(lp62
I140
aI45
aI134
aa(lp63
I126
aI124
aI200
aa(lp64
I125
aI124
aI200
aa(lp65
I125
aI126
aI200
aa(lp66
I125
aI126
aI124
aa(lp67
I180
aI181
aI97
aa(lp68
I95
aI181
aI97
aa(lp69
I95
aI180
aI97
aa(lp70
I95
aI180
aI181
aa(lp71
I95
aI181
aI114
aa(lp72
I95
aI180
aI114
aa(lp73
I181
aI97
aI116
aa(lp74
I95
aI97
aI116
aa(lp75
I95
aI181
aI116
aa(lp76
I95
aI114
aI116
aa(lp77
I144
aI177
aI108
aa(lp78
I81
aI177
aI108
aa(lp79
I81
aI144
aI108
aa(lp80
I81
aI144
aI177
aa(lp81
I136
aI180
aI181
aa(lp82
I136
aI100
aI181
aa(lp83
I136
aI100
aI180
aa(lp84
I136
aI181
aI200
aa(lp85
I136
aI100
aI200
aa(lp86
I136
aI177
aI108
aa(lp87
I136
aI144
aI108
aa(lp88
I136
aI144
aI177
aa(lp89
I136
aI134
aI145
aa(lp90
I136
aI200
aI145
aa(lp91
I136
aI200
aI134
aa(lp92
I136
aI67
aI145
aa(lp93
I136
aI67
aI134
aa(lp94
I67
aI135
aI134
aa(lp95
I34
aI135
aI134
aa(lp96
I34
aI67
aI134
aa(lp97
I34
aI67
aI135
aa(lp98
I34
aI150
aI134
aa(lp99
I34
aI45
aI134
aa(lp100
I34
aI45
aI150
aa(lp101
I143
aI41
aI145
aa(lp102
I143
aI67
aI145
aa(lp103
I143
aI67
aI41
aa(lp104
I29
aI137
aI7
aa(lp105
I29
aI46
aI7
aa(lp106
I29
aI46
aI137
aa(lp107
I15
aI167
aI107
aa(lp108
I18
aI167
aI107
aa(lp109
I18
aI15
aI107
aa(lp110
I18
aI15
aI167
aa(lp111
I3
aI4
aI10
aa(lp112
I64
aI4
aI10
aa(lp113
I64
aI3
aI10
aa(lp114
I64
aI3
aI4
aa(lp115
I190
aI183
aI53
aa(lp116
I186
aI183
aI53
aa(lp117
I186
aI190
aI53
aa(lp118
I186
aI190
aI183
aa(lp119
I91
aI190
aI53
aa(lp120
I91
aI186
aI53
aa(lp121
I91
aI186
aI190
aa(lp122
I91
aI183
aI53
aa(lp123
I91
aI186
aI183
aa(lp124
I186
aI184
aI183
aa(lp125
I91
aI184
aI183
aa(lp126
I91
aI186
aI184
aa(lp127
I140
aI137
aI7
aa(lp128
I138
aI137
aI7
aa(lp129
I138
aI140
aI7
aa(lp130
I138
aI140
aI137
aa(lp131
I140
aI126
aI129
aa(lp132
I138
aI126
aI129
aa(lp133
I138
aI140
aI129
aa(lp134
I138
aI140
aI126
aa(lp135
I121
aI124
aI200
aa(lp136
I141
aI124
aI200
aa(lp137
I141
aI121
aI200
aa(lp138
I141
aI121
aI124
aa(lp139
I141
aI126
aI200
aa(lp140
I141
aI126
aI124
aa(lp141
I140
aI126
aI200
aa(lp142
I141
aI140
aI200
aa(lp143
I141
aI140
aI126
aa(lp144
I140
aI126
aI124
aa(lp145
I141
aI140
aI124
aa(lp146
I141
aI45
aI200
aa(lp147
I141
aI45
aI121
aa(lp148
I141
aI200
aI134
aa(lp149
I141
aI45
aI134
aa(lp150
I140
aI200
aI134
aa(lp151
I141
aI140
aI134
aa(lp152
I141
aI140
aI45
aa(lp153
I65
aI140
aI7
aa(lp154
I141
aI140
aI7
aa(lp155
I141
aI65
aI7
aa(lp156
I141
aI65
aI140
aa(lp157
I65
aI140
aI124
aa(lp158
I141
aI65
aI124
aa(lp159
I141
aI137
aI7
aa(lp160
I141
aI45
aI7
aa(lp161
I141
aI45
aI137
aa(lp162
I141
aI140
aI137
aa(lp163
I124
aI200
aI116
aa(lp164
I119
aI200
aI116
aa(lp165
I119
aI124
aI116
aa(lp166
I119
aI124
aI200
aa(lp167
I125
aI200
aI116
aa(lp168
I119
aI125
aI116
aa(lp169
I119
aI125
aI200
aa(lp170
I119
aI125
aI124
aa(lp171
I115
aI200
aI116
aa(lp172
I115
aI124
aI116
aa(lp173
I115
aI124
aI200
aa(lp174
I115
aI114
aI116
aa(lp175
I115
aI114
aI200
aa(lp176
I115
aI119
aI116
aa(lp177
I115
aI119
aI124
aa(lp178
I119
aI118
aI116
aa(lp179
I115
aI118
aI116
aa(lp180
I115
aI119
aI118
aa(lp181
I96
aI97
aI116
aa(lp182
I96
aI95
aI116
aa(lp183
I96
aI95
aI97
aa(lp184
I96
aI114
aI116
aa(lp185
I96
aI95
aI114
aa(lp186
I119
aI118
aI22
aa(lp187
I123
aI118
aI22
aa(lp188
I123
aI119
aI22
aa(lp189
I123
aI119
aI118
aa(lp190
I106
aI147
aI107
aa(lp191
I160
aI147
aI107
aa(lp192
I160
aI106
aI107
aa(lp193
I160
aI106
aI147
aa(lp194
I160
aI126
aI129
aa(lp195
I160
aI138
aI129
aa(lp196
I160
aI138
aI126
aa(lp197
I123
aI58
aI22
aa(lp198
I55
aI58
aI22
aa(lp199
I55
aI123
aI22
aa(lp200
I55
aI123
aI58
aa(lp201
I127
aI126
aI124
aa(lp202
I127
aI140
aI124
aa(lp203
I127
aI140
aI126
aa(lp204
I127
aI65
aI124
aa(lp205
I127
aI65
aI140
aa(lp206
I55
aI65
aI124
aa(lp207
I127
aI55
aI124
aa(lp208
I127
aI55
aI65
aa(lp209
I127
aI126
aI129
aa(lp210
I127
aI140
aI129
aa(lp211
I65
aI140
aI129
aa(lp212
I127
aI65
aI129
aa(lp213
I55
aI22
aI124
aa(lp214
I127
aI22
aI124
aa(lp215
I127
aI55
aI22
aa(lp216
I55
aI65
aI129
aa(lp217
I127
aI55
aI129
aa(lp218
I127
aI125
aI124
aa(lp219
I127
aI125
aI126
aa(lp220
I125
aI22
aI124
aa(lp221
I127
aI125
aI22
aa(lp222
I125
aI22
aI126
aa(lp223
I127
aI22
aI126
aa(lp224
I22
aI126
aI129
aa(lp225
I127
aI22
aI129
aa(lp226
I163
aI171
aI150
aa(lp227
I164
aI171
aI150
aa(lp228
I164
aI163
aI150
aa(lp229
I164
aI163
aI171
aa(lp230
I163
aI162
aI165
aa(lp231
I164
aI162
aI165
aa(lp232
I164
aI163
aI165
aa(lp233
I164
aI163
aI162
aa(lp234
I161
aI162
aI165
aa(lp235
I161
aI163
aI165
aa(lp236
I161
aI163
aI162
aa(lp237
I192
aI156
aI165
aa(lp238
I161
aI156
aI165
aa(lp239
I161
aI192
aI165
aa(lp240
I161
aI192
aI156
aa(lp241
I70
aI163
aI162
aa(lp242
I70
aI161
aI162
aa(lp243
I70
aI161
aI163
aa(lp244
I70
aI164
aI162
aa(lp245
I70
aI164
aI163
aa(lp246
I100
aI114
aI108
aa(lp247
I196
aI114
aI108
aa(lp248
I196
aI100
aI108
aa(lp249
I196
aI100
aI114
aa(lp250
I196
aI180
aI114
aa(lp251
I196
aI95
aI114
aa(lp252
I196
aI95
aI180
aa(lp253
I120
aI100
aI200
aa(lp254
I120
aI136
aI200
aa(lp255
I120
aI136
aI100
aa(lp256
I38
aI100
aI135
aa(lp257
I120
aI100
aI135
aa(lp258
I120
aI38
aI135
aa(lp259
I120
aI38
aI100
aa(lp260
I120
aI200
aI134
aa(lp261
I120
aI135
aI134
aa(lp262
I120
aI135
aI200
aa(lp263
I120
aI136
aI134
aa(lp264
I120
aI121
aI200
aa(lp265
I120
aI121
aI135
aa(lp266
I38
aI121
aI135
aa(lp267
I120
aI38
aI121
aa(lp268
I120
aI67
aI134
aa(lp269
I120
aI67
aI135
aa(lp270
I120
aI114
aI200
aa(lp271
I120
aI100
aI114
aa(lp272
I120
aI115
aI200
aa(lp273
I120
aI115
aI114
aa(lp274
I115
aI100
aI114
aa(lp275
I120
aI115
aI100
aa(lp276
I68
aI156
aI145
aa(lp277
I68
aI181
aI145
aa(lp278
I68
aI181
aI156
aa(lp279
I68
aI156
aI183
aa(lp280
I68
aI181
aI183
aa(lp281
I190
aI156
aI183
aa(lp282
I68
aI190
aI183
aa(lp283
I68
aI190
aI156
aa(lp284
I179
aI180
aI181
aa(lp285
I179
aI136
aI181
aa(lp286
I179
aI136
aI180
aa(lp287
I179
aI181
aI183
aa(lp288
I179
aI180
aI183
aa(lp289
I179
aI68
aI183
aa(lp290
I179
aI68
aI181
aa(lp291
I136
aI181
aI145
aa(lp292
I179
aI181
aI145
aa(lp293
I179
aI136
aI145
aa(lp294
I179
aI68
aI145
aa(lp295
I136
aI100
aI108
aa(lp296
I179
aI100
aI108
aa(lp297
I179
aI136
aI108
aa(lp298
I179
aI136
aI100
aa(lp299
I179
aI100
aI180
aa(lp300
I179
aI114
aI108
aa(lp301
I179
aI196
aI108
aa(lp302
I179
aI196
aI114
aa(lp303
I179
aI180
aI114
aa(lp304
I179
aI196
aI180
aa(lp305
I179
aI100
aI114
aa(lp306
I184
aI194
aI97
aa(lp307
I85
aI194
aI97
aa(lp308
I85
aI184
aI97
aa(lp309
I85
aI184
aI194
aa(lp310
I85
aI87
aI194
aa(lp311
I86
aI87
aI194
aa(lp312
I86
aI85
aI194
aa(lp313
I86
aI85
aI87
aa(lp314
I186
aI89
aI194
aa(lp315
I86
aI89
aI194
aa(lp316
I86
aI186
aI194
aa(lp317
I86
aI186
aI89
aa(lp318
I151
aI149
aI150
aa(lp319
I151
aI67
aI150
aa(lp320
I151
aI67
aI149
aa(lp321
I151
aI150
aI134
aa(lp322
I151
aI67
aI134
aa(lp323
I151
aI34
aI134
aa(lp324
I151
aI34
aI150
aa(lp325
I151
aI34
aI67
aa(lp326
I151
aI137
aI150
aa(lp327
I151
aI45
aI150
aa(lp328
I151
aI45
aI137
aa(lp329
I151
aI34
aI45
aa(lp330
I151
aI46
aI137
aa(lp331
I151
aI29
aI137
aa(lp332
I151
aI29
aI46
aa(lp333
I151
aI45
aI46
aa(lp334
I34
aI45
aI46
aa(lp335
I151
aI34
aI46
aa(lp336
I136
aI144
aI145
aa(lp337
I132
aI144
aI145
aa(lp338
I132
aI136
aI145
aa(lp339
I132
aI136
aI144
aa(lp340
I132
aI67
aI145
aa(lp341
I132
aI136
aI67
aa(lp342
I143
aI144
aI145
aa(lp343
I132
aI143
aI145
aa(lp344
I132
aI143
aI144
aa(lp345
I132
aI143
aI67
aa(lp346
I195
aI100
aI108
aa(lp347
I195
aI196
aI108
aa(lp348
I195
aI196
aI100
aa(lp349
I195
aI100
aI114
aa(lp350
I195
aI196
aI114
aa(lp351
I195
aI115
aI114
aa(lp352
I195
aI115
aI100
aa(lp353
I195
aI38
aI100
aa(lp354
I195
aI120
aI100
aa(lp355
I195
aI120
aI38
aa(lp356
I195
aI120
aI115
aa(lp357
I6
aI46
aI7
aa(lp358
I6
aI29
aI7
aa(lp359
I6
aI29
aI46
aa(lp360
I138
aI29
aI7
aa(lp361
I6
aI138
aI7
aa(lp362
I6
aI138
aI29
aa(lp363
I6
aI140
aI7
aa(lp364
I6
aI65
aI7
aa(lp365
I6
aI65
aI140
aa(lp366
I6
aI138
aI140
aa(lp367
I6
aI140
aI129
aa(lp368
I6
aI65
aI129
aa(lp369
I6
aI138
aI129
aa(lp370
I5
aI138
aI129
aa(lp371
I6
aI5
aI129
aa(lp372
I6
aI5
aI138
aa(lp373
I6
aI55
aI129
aa(lp374
I6
aI55
aI65
aa(lp375
I49
aI11
aI15
aa(lp376
I63
aI11
aI15
aa(lp377
I63
aI49
aI15
aa(lp378
I63
aI49
aI11
aa(lp379
I87
aI90
aI60
aa(lp380
I44
aI90
aI60
aa(lp381
I44
aI87
aI60
aa(lp382
I44
aI87
aI90
aa(lp383
I49
aI90
aI60
aa(lp384
I44
aI49
aI60
aa(lp385
I44
aI49
aI90
aa(lp386
I63
aI49
aI90
aa(lp387
I44
aI63
aI90
aa(lp388
I44
aI63
aI49
aa(lp389
I91
aI89
aI90
aa(lp390
I44
aI89
aI90
aa(lp391
I44
aI91
aI90
aa(lp392
I44
aI91
aI89
aa(lp393
I86
aI89
aI87
aa(lp394
I44
aI89
aI87
aa(lp395
I44
aI86
aI87
aa(lp396
I44
aI86
aI89
aa(lp397
I11
aI15
aI167
aa(lp398
I166
aI15
aI167
aa(lp399
I166
aI11
aI167
aa(lp400
I166
aI11
aI15
aa(lp401
I77
aI11
aI15
aa(lp402
I166
aI77
aI15
aa(lp403
I166
aI77
aI11
aa(lp404
I166
aI18
aI167
aa(lp405
I166
aI18
aI15
aa(lp406
I77
aI18
aI15
aa(lp407
I166
aI77
aI18
aa(lp408
I18
aI167
aI165
aa(lp409
I166
aI167
aI165
aa(lp410
I166
aI18
aI165
aa(lp411
I105
aI90
aI60
aa(lp412
I105
aI87
aI60
aa(lp413
I105
aI87
aI90
aa(lp414
I61
aI3
aI10
aa(lp415
I61
aI64
aI10
aa(lp416
I61
aI64
aI3
aa(lp417
I61
aI3
aI4
aa(lp418
I61
aI64
aI4
aa(lp419
I106
aI198
aI147
aa(lp420
I103
aI198
aI147
aa(lp421
I103
aI106
aI147
aa(lp422
I103
aI106
aI198
aa(lp423
I105
aI106
aI198
aa(lp424
I103
aI105
aI198
aa(lp425
I103
aI105
aI106
aa(lp426
I103
aI160
aI147
aa(lp427
I103
aI160
aI106
aa(lp428
I160
aI139
aI147
aa(lp429
I103
aI139
aI147
aa(lp430
I103
aI160
aI139
aa(lp431
I179
aI178
aI183
aa(lp432
I185
aI178
aI183
aa(lp433
I185
aI179
aI183
aa(lp434
I185
aI179
aI178
aa(lp435
I185
aI180
aI183
aa(lp436
I185
aI184
aI183
aa(lp437
I185
aI184
aI180
aa(lp438
I185
aI179
aI180
aa(lp439
I179
aI178
aI180
aa(lp440
I185
aI178
aI180
aa(lp441
I186
aI184
aI194
aa(lp442
I185
aI184
aI194
aa(lp443
I185
aI186
aI194
aa(lp444
I185
aI186
aI184
aa(lp445
I185
aI86
aI194
aa(lp446
I185
aI86
aI186
aa(lp447
I105
aI91
aI90
aa(lp448
I17
aI91
aI90
aa(lp449
I17
aI105
aI90
aa(lp450
I17
aI105
aI91
aa(lp451
I63
aI18
aI15
aa(lp452
I17
aI18
aI15
aa(lp453
I17
aI63
aI15
aa(lp454
I17
aI63
aI18
aa(lp455
I63
aI91
aI90
aa(lp456
I17
aI63
aI90
aa(lp457
I17
aI63
aI91
aa(lp458
I49
aI15
aI90
aa(lp459
I17
aI15
aI90
aa(lp460
I17
aI49
aI90
aa(lp461
I17
aI49
aI15
aa(lp462
I17
aI63
aI49
aa(lp463
I184
aI198
aI194
aa(lp464
I88
aI198
aI194
aa(lp465
I88
aI184
aI194
aa(lp466
I88
aI184
aI198
aa(lp467
I105
aI91
aI198
aa(lp468
I88
aI91
aI198
aa(lp469
I88
aI105
aI198
aa(lp470
I88
aI105
aI91
aa(lp471
I88
aI186
aI194
aa(lp472
I88
aI186
aI184
aa(lp473
I88
aI91
aI184
aa(lp474
I88
aI91
aI186
aa(lp475
I88
aI91
aI90
aa(lp476
I88
aI105
aI90
aa(lp477
I88
aI89
aI194
aa(lp478
I88
aI186
aI89
aa(lp479
I91
aI186
aI89
aa(lp480
I88
aI91
aI89
aa(lp481
I88
aI87
aI194
aa(lp482
I88
aI85
aI194
aa(lp483
I88
aI85
aI87
aa(lp484
I88
aI89
aI90
aa(lp485
I88
aI87
aI90
aa(lp486
I88
aI105
aI87
aa(lp487
I88
aI86
aI194
aa(lp488
I88
aI86
aI87
aa(lp489
I88
aI86
aI89
aa(lp490
I88
aI89
aI87
aa(lp491
I88
aI44
aI90
aa(lp492
I88
aI44
aI87
aa(lp493
I88
aI44
aI89
aa(lp494
I173
aI24
aI167
aa(lp495
I9
aI24
aI167
aa(lp496
I9
aI173
aI167
aa(lp497
I9
aI173
aI24
aa(lp498
I9
aI5
aI138
aa(lp499
I9
aI6
aI138
aa(lp500
I9
aI6
aI5
aa(lp501
I138
aI167
aI107
aa(lp502
I9
aI167
aI107
aa(lp503
I9
aI138
aI107
aa(lp504
I9
aI138
aI167
aa(lp505
I170
aI137
aI150
aa(lp506
I170
aI140
aI150
aa(lp507
I170
aI140
aI137
aa(lp508
I170
aI150
aI134
aa(lp509
I170
aI140
aI134
aa(lp510
I170
aI138
aI167
aa(lp511
I170
aI9
aI167
aa(lp512
I170
aI9
aI138
aa(lp513
I170
aI149
aI134
aa(lp514
I170
aI149
aI150
aa(lp515
I170
aI146
aI134
aa(lp516
I170
aI149
aI146
aa(lp517
I163
aI149
aI150
aa(lp518
I170
aI163
aI150
aa(lp519
I170
aI163
aI149
aa(lp520
I170
aI171
aI150
aa(lp521
I170
aI163
aI171
aa(lp522
I163
aI149
aI146
aa(lp523
I170
aI163
aI146
aa(lp524
I164
aI171
aI165
aa(lp525
I170
aI171
aI165
aa(lp526
I170
aI164
aI165
aa(lp527
I170
aI164
aI171
aa(lp528
I170
aI163
aI165
aa(lp529
I170
aI164
aI163
aa(lp530
I14
aI137
aI7
aa(lp531
I14
aI29
aI7
aa(lp532
I14
aI29
aI137
aa(lp533
I14
aI138
aI7
aa(lp534
I14
aI138
aI137
aa(lp535
I14
aI138
aI29
aa(lp536
I14
aI6
aI29
aa(lp537
I14
aI6
aI138
aa(lp538
I14
aI9
aI138
aa(lp539
I14
aI9
aI6
aa(lp540
I122
aI121
aI124
aa(lp541
I122
aI141
aI124
aa(lp542
I122
aI141
aI121
aa(lp543
I122
aI65
aI124
aa(lp544
I122
aI141
aI65
aa(lp545
I122
aI38
aI121
aa(lp546
I122
aI120
aI121
aa(lp547
I122
aI120
aI38
aa(lp548
I122
aI195
aI38
aa(lp549
I122
aI195
aI120
aa(lp550
I122
aI55
aI124
aa(lp551
I122
aI55
aI65
aa(lp552
I122
aI124
aI200
aa(lp553
I122
aI121
aI200
aa(lp554
I122
aI120
aI200
aa(lp555
I122
aI65
aI7
aa(lp556
I122
aI141
aI7
aa(lp557
I117
aI97
aI116
aa(lp558
I117
aI96
aI116
aa(lp559
I117
aI96
aI97
aa(lp560
I117
aI118
aI116
aa(lp561
I117
aI119
aI116
aa(lp562
I117
aI119
aI118
aa(lp563
I117
aI115
aI116
aa(lp564
I117
aI115
aI118
aa(lp565
I117
aI114
aI116
aa(lp566
I117
aI115
aI114
aa(lp567
I117
aI96
aI114
aa(lp568
I142
aI139
aI147
aa(lp569
I142
aI160
aI147
aa(lp570
I142
aI160
aI139
aa(lp571
I142
aI126
aI129
aa(lp572
I142
aI160
aI129
aa(lp573
I142
aI160
aI126
aa(lp574
I21
aI24
aI167
aa(lp575
I21
aI9
aI167
aa(lp576
I21
aI9
aI24
aa(lp577
I1
aI49
aI60
aa(lp578
I21
aI49
aI60
aa(lp579
I21
aI1
aI60
aa(lp580
I21
aI1
aI49
aa(lp581
I1
aI49
aI11
aa(lp582
I21
aI49
aI11
aa(lp583
I21
aI1
aI11
aa(lp584
I21
aI15
aI167
aa(lp585
I21
aI11
aI167
aa(lp586
I21
aI11
aI15
aa(lp587
I128
aI119
aI22
aa(lp588
I128
aI123
aI22
aa(lp589
I128
aI123
aI119
aa(lp590
I128
aI139
aI147
aa(lp591
I128
aI142
aI147
aa(lp592
I128
aI142
aI139
aa(lp593
I128
aI126
aI129
aa(lp594
I128
aI22
aI129
aa(lp595
I128
aI22
aI126
aa(lp596
I128
aI142
aI129
aa(lp597
I128
aI142
aI126
aa(lp598
I119
aI125
aI22
aa(lp599
I128
aI125
aI22
aa(lp600
I128
aI119
aI125
aa(lp601
I128
aI125
aI126
aa(lp602
I70
aI161
aI69
aa(lp603
I148
aI161
aI69
aa(lp604
I148
aI70
aI69
aa(lp605
I148
aI70
aI161
aa(lp606
I143
aI149
aI41
aa(lp607
I148
aI149
aI41
aa(lp608
I148
aI143
aI41
aa(lp609
I148
aI143
aI149
aa(lp610
I161
aI69
aI146
aa(lp611
I148
aI69
aI146
aa(lp612
I148
aI161
aI146
aa(lp613
I148
aI146
aI41
aa(lp614
I148
aI149
aI146
aa(lp615
I161
aI163
aI146
aa(lp616
I148
aI163
aI146
aa(lp617
I148
aI161
aI163
aa(lp618
I148
aI70
aI163
aa(lp619
I148
aI163
aI149
aa(lp620
I18
aI192
aI53
aa(lp621
I35
aI192
aI53
aa(lp622
I35
aI18
aI53
aa(lp623
I35
aI18
aI192
aa(lp624
I17
aI18
aI53
aa(lp625
I35
aI17
aI53
aa(lp626
I35
aI17
aI18
aa(lp627
I17
aI63
aI53
aa(lp628
I35
aI63
aI53
aa(lp629
I35
aI17
aI63
aa(lp630
I35
aI63
aI18
aa(lp631
I35
aI18
aI15
aa(lp632
I35
aI63
aI15
aa(lp633
I193
aI192
aI156
aa(lp634
I193
aI161
aI156
aa(lp635
I193
aI161
aI192
aa(lp636
I193
aI192
aI165
aa(lp637
I193
aI161
aI165
aa(lp638
I81
aI108
aI10
aa(lp639
I111
aI108
aI10
aa(lp640
I111
aI81
aI10
aa(lp641
I111
aI81
aI108
aa(lp642
I196
aI81
aI10
aa(lp643
I111
aI196
aI10
aa(lp644
I111
aI196
aI81
aa(lp645
I196
aI81
aI108
aa(lp646
I111
aI196
aI108
aa(lp647
I111
aI195
aI108
aa(lp648
I111
aI195
aI196
aa(lp649
I111
aI196
aI114
aa(lp650
I111
aI195
aI114
aa(lp651
I3
aI62
aI10
aa(lp652
I94
aI62
aI10
aa(lp653
I94
aI3
aI10
aa(lp654
I94
aI3
aI62
aa(lp655
I111
aI62
aI10
aa(lp656
I94
aI111
aI10
aa(lp657
I94
aI111
aI62
aa(lp658
I94
aI196
aI10
aa(lp659
I94
aI111
aI196
aa(lp660
I111
aI196
aI62
aa(lp661
I94
aI196
aI62
aa(lp662
I94
aI61
aI10
aa(lp663
I94
aI61
aI3
aa(lp664
I61
aI3
aI62
aa(lp665
I94
aI61
aI62
aa(lp666
I94
aI81
aI10
aa(lp667
I94
aI196
aI81
aa(lp668
I94
aI64
aI10
aa(lp669
I94
aI61
aI64
aa(lp670
I61
aI102
aI64
aa(lp671
I94
aI102
aI64
aa(lp672
I94
aI61
aI102
aa(lp673
I157
aI156
aI145
aa(lp674
I157
aI68
aI145
aa(lp675
I157
aI68
aI156
aa(lp676
I146
aI156
aI145
aa(lp677
I157
aI146
aI145
aa(lp678
I157
aI146
aI156
aa(lp679
I157
aI41
aI145
aa(lp680
I157
aI146
aI41
aa(lp681
I161
aI146
aI156
aa(lp682
I157
aI161
aI156
aa(lp683
I157
aI161
aI146
aa(lp684
I157
aI69
aI146
aa(lp685
I157
aI161
aI69
aa(lp686
I157
aI148
aI41
aa(lp687
I157
aI148
aI146
aa(lp688
I148
aI69
aI41
aa(lp689
I157
aI69
aI41
aa(lp690
I157
aI148
aI69
aa(lp691
I193
aI50
aI192
aa(lp692
I75
aI50
aI192
aa(lp693
I75
aI193
aI192
aa(lp694
I75
aI193
aI50
aa(lp695
I187
aI190
aI183
aa(lp696
I187
aI68
aI183
aa(lp697
I187
aI68
aI190
aa(lp698
I187
aI179
aI183
aa(lp699
I187
aI179
aI68
aa(lp700
I187
aI178
aI183
aa(lp701
I187
aI179
aI178
aa(lp702
I179
aI68
aI178
aa(lp703
I187
aI68
aI178
aa(lp704
I187
aI185
aI183
aa(lp705
I187
aI185
aI178
aa(lp706
I187
aI186
aI183
aa(lp707
I187
aI186
aI190
aa(lp708
I187
aI184
aI183
aa(lp709
I187
aI186
aI184
aa(lp710
I187
aI185
aI184
aa(lp711
I187
aI185
aI186
aa(lp712
I103
aI102
aI198
aa(lp713
I197
aI102
aI198
aa(lp714
I197
aI103
aI198
aa(lp715
I197
aI103
aI102
aa(lp716
I197
aI194
aI97
aa(lp717
I197
aI85
aI97
aa(lp718
I197
aI85
aI194
aa(lp719
I85
aI198
aI194
aa(lp720
I197
aI198
aI194
aa(lp721
I197
aI85
aI198
aa(lp722
I197
aI184
aI97
aa(lp723
I197
aI184
aI194
aa(lp724
I197
aI198
aI97
aa(lp725
I197
aI184
aI198
aa(lp726
I84
aI95
aI180
aa(lp727
I84
aI196
aI180
aa(lp728
I84
aI196
aI95
aa(lp729
I84
aI184
aI97
aa(lp730
I84
aI85
aI97
aa(lp731
I84
aI85
aI184
aa(lp732
I84
aI197
aI97
aa(lp733
I84
aI197
aI85
aa(lp734
I84
aI181
aI97
aa(lp735
I84
aI180
aI97
aa(lp736
I84
aI180
aI181
aa(lp737
I84
aI184
aI181
aa(lp738
I84
aI184
aI180
aa(lp739
I84
aI184
aI194
aa(lp740
I84
aI85
aI194
aa(lp741
I84
aI178
aI180
aa(lp742
I84
aI179
aI180
aa(lp743
I84
aI179
aI178
aa(lp744
I84
aI86
aI194
aa(lp745
I84
aI86
aI85
aa(lp746
I197
aI85
aI102
aa(lp747
I84
aI85
aI102
aa(lp748
I84
aI197
aI102
aa(lp749
I84
aI185
aI194
aa(lp750
I84
aI185
aI184
aa(lp751
I84
aI185
aI180
aa(lp752
I84
aI185
aI178
aa(lp753
I185
aI86
aI178
aa(lp754
I84
aI86
aI178
aa(lp755
I84
aI185
aI86
aa(lp756
I83
aI85
aI87
aa(lp757
I83
aI86
aI87
aa(lp758
I83
aI86
aI85
aa(lp759
I83
aI84
aI85
aa(lp760
I83
aI84
aI86
aa(lp761
I102
aI64
aI87
aa(lp762
I83
aI64
aI87
aa(lp763
I83
aI102
aI87
aa(lp764
I83
aI102
aI64
aa(lp765
I85
aI102
aI87
aa(lp766
I83
aI85
aI102
aa(lp767
I83
aI84
aI102
aa(lp768
I64
aI81
aI10
aa(lp769
I83
aI81
aI10
aa(lp770
I83
aI64
aI10
aa(lp771
I83
aI64
aI81
aa(lp772
I83
aI94
aI10
aa(lp773
I83
aI94
aI64
aa(lp774
I83
aI94
aI102
aa(lp775
I32
aI1
aI11
aa(lp776
I32
aI21
aI11
aa(lp777
I32
aI21
aI1
aa(lp778
I32
aI24
aI167
aa(lp779
I32
aI173
aI167
aa(lp780
I32
aI173
aI24
aa(lp781
I32
aI21
aI167
aa(lp782
I32
aI21
aI24
aa(lp783
I32
aI11
aI167
aa(lp784
I32
aI166
aI167
aa(lp785
I32
aI166
aI11
aa(lp786
I166
aI173
aI167
aa(lp787
I32
aI166
aI173
aa(lp788
I72
aI143
aI144
aa(lp789
I72
aI132
aI144
aa(lp790
I72
aI132
aI143
aa(lp791
I113
aI100
aI108
aa(lp792
I113
aI136
aI108
aa(lp793
I113
aI136
aI100
aa(lp794
I113
aI144
aI108
aa(lp795
I113
aI136
aI144
aa(lp796
I132
aI144
aI108
aa(lp797
I113
aI132
aI108
aa(lp798
I113
aI132
aI144
aa(lp799
I113
aI132
aI136
aa(lp800
I132
aI67
aI135
aa(lp801
I113
aI67
aI135
aa(lp802
I113
aI132
aI135
aa(lp803
I113
aI132
aI67
aa(lp804
I113
aI136
aI67
aa(lp805
I113
aI100
aI135
aa(lp806
I113
aI120
aI135
aa(lp807
I113
aI120
aI100
aa(lp808
I113
aI120
aI136
aa(lp809
I113
aI120
aI67
aa(lp810
I113
aI67
aI134
aa(lp811
I113
aI136
aI134
aa(lp812
I113
aI120
aI134
aa(lp813
I65
aI46
aI7
aa(lp814
I36
aI46
aI7
aa(lp815
I36
aI65
aI7
aa(lp816
I36
aI65
aI46
aa(lp817
I36
aI6
aI7
aa(lp818
I36
aI6
aI46
aa(lp819
I36
aI6
aI65
aa(lp820
I36
aI29
aI46
aa(lp821
I36
aI6
aI29
aa(lp822
I36
aI55
aI65
aa(lp823
I36
aI6
aI55
aa(lp824
I36
aI6
aI5
aa(lp825
I36
aI9
aI5
aa(lp826
I36
aI9
aI6
aa(lp827
I36
aI14
aI29
aa(lp828
I36
aI14
aI6
aa(lp829
I36
aI14
aI9
aa(lp830
I9
aI5
aI24
aa(lp831
I36
aI5
aI24
aa(lp832
I36
aI9
aI24
aa(lp833
I14
aI9
aI24
aa(lp834
I36
aI14
aI24
aa(lp835
I80
aI64
aI87
aa(lp836
I80
aI83
aI87
aa(lp837
I80
aI83
aI64
aa(lp838
I80
aI64
aI81
aa(lp839
I80
aI83
aI81
aa(lp840
I80
aI86
aI87
aa(lp841
I80
aI44
aI87
aa(lp842
I80
aI44
aI86
aa(lp843
I64
aI87
aI60
aa(lp844
I80
aI87
aI60
aa(lp845
I80
aI64
aI60
aa(lp846
I80
aI44
aI60
aa(lp847
I80
aI83
aI86
aa(lp848
I64
aI4
aI60
aa(lp849
I80
aI4
aI60
aa(lp850
I80
aI64
aI4
aa(lp851
I80
aI49
aI60
aa(lp852
I80
aI44
aI49
aa(lp853
I80
aI4
aI10
aa(lp854
I80
aI64
aI10
aa(lp855
I80
aI81
aI10
aa(lp856
I72
aI81
aI10
aa(lp857
I80
aI72
aI10
aa(lp858
I80
aI72
aI81
aa(lp859
I92
aI91
aI90
aa(lp860
I92
aI63
aI90
aa(lp861
I92
aI63
aI91
aa(lp862
I92
aI44
aI90
aa(lp863
I92
aI44
aI91
aa(lp864
I92
aI44
aI63
aa(lp865
I92
aI63
aI53
aa(lp866
I92
aI35
aI53
aa(lp867
I92
aI35
aI63
aa(lp868
I17
aI91
aI53
aa(lp869
I92
aI91
aI53
aa(lp870
I92
aI17
aI53
aa(lp871
I92
aI17
aI91
aa(lp872
I92
aI17
aI63
aa(lp873
I48
aI49
aI11
aa(lp874
I48
aI63
aI11
aa(lp875
I48
aI63
aI49
aa(lp876
I164
aI173
aI171
aa(lp877
I168
aI173
aI171
aa(lp878
I168
aI164
aI171
aa(lp879
I168
aI164
aI173
aa(lp880
I168
aI171
aI165
aa(lp881
I168
aI164
aI165
aa(lp882
I168
aI170
aI165
aa(lp883
I168
aI170
aI171
aa(lp884
I168
aI173
aI167
aa(lp885
I168
aI166
aI167
aa(lp886
I168
aI166
aI173
aa(lp887
I170
aI173
aI167
aa(lp888
I168
aI170
aI167
aa(lp889
I168
aI170
aI173
aa(lp890
I168
aI162
aI165
aa(lp891
I168
aI164
aI162
aa(lp892
I168
aI167
aI165
aa(lp893
I168
aI166
aI165
aa(lp894
I170
aI167
aI165
aa(lp895
I104
aI102
aI87
aa(lp896
I104
aI85
aI87
aa(lp897
I104
aI85
aI102
aa(lp898
I104
aI64
aI87
aa(lp899
I104
aI102
aI64
aa(lp900
I104
aI88
aI87
aa(lp901
I104
aI88
aI85
aa(lp902
I104
aI105
aI87
aa(lp903
I104
aI88
aI105
aa(lp904
I104
aI105
aI198
aa(lp905
I104
aI88
aI198
aa(lp906
I104
aI102
aI198
aa(lp907
I104
aI197
aI198
aa(lp908
I104
aI197
aI102
aa(lp909
I104
aI85
aI198
aa(lp910
I104
aI197
aI85
aa(lp911
I104
aI103
aI198
aa(lp912
I104
aI103
aI102
aa(lp913
I104
aI103
aI105
aa(lp914
I104
aI198
aI194
aa(lp915
I104
aI85
aI194
aa(lp916
I104
aI88
aI194
aa(lp917
I182
aI3
aI62
aa(lp918
I182
aI61
aI62
aa(lp919
I182
aI61
aI3
aa(lp920
I123
aI58
aI62
aa(lp921
I182
aI58
aI62
aa(lp922
I182
aI123
aI62
aa(lp923
I182
aI123
aI58
aa(lp924
I123
aI139
aI62
aa(lp925
I182
aI139
aI62
aa(lp926
I182
aI123
aI139
aa(lp927
I128
aI123
aI58
aa(lp928
I182
aI128
aI58
aa(lp929
I182
aI128
aI123
aa(lp930
I128
aI123
aI139
aa(lp931
I182
aI128
aI139
aa(lp932
I109
aI105
aI106
aa(lp933
I109
aI103
aI106
aa(lp934
I109
aI103
aI105
aa(lp935
I103
aI61
aI102
aa(lp936
I109
aI61
aI102
aa(lp937
I109
aI103
aI102
aa(lp938
I109
aI103
aI61
aa(lp939
I109
aI104
aI102
aa(lp940
I109
aI104
aI103
aa(lp941
I109
aI104
aI105
aa(lp942
I109
aI102
aI64
aa(lp943
I109
aI61
aI64
aa(lp944
I109
aI104
aI64
aa(lp945
I109
aI87
aI60
aa(lp946
I109
aI64
aI60
aa(lp947
I109
aI64
aI87
aa(lp948
I109
aI104
aI87
aa(lp949
I109
aI105
aI60
aa(lp950
I109
aI105
aI87
aa(lp951
I198
aI147
aI97
aa(lp952
I101
aI147
aI97
aa(lp953
I101
aI198
aI97
aa(lp954
I101
aI198
aI147
aa(lp955
I101
aI103
aI147
aa(lp956
I101
aI103
aI198
aa(lp957
I101
aI197
aI97
aa(lp958
I101
aI197
aI198
aa(lp959
I101
aI197
aI103
aa(lp960
I101
aI139
aI147
aa(lp961
I101
aI103
aI139
aa(lp962
I101
aI103
aI102
aa(lp963
I101
aI197
aI102
aa(lp964
I123
aI139
aI147
aa(lp965
I101
aI123
aI147
aa(lp966
I101
aI123
aI139
aa(lp967
I172
aI9
aI138
aa(lp968
I172
aI170
aI138
aa(lp969
I172
aI170
aI9
aa(lp970
I172
aI14
aI138
aa(lp971
I172
aI14
aI9
aa(lp972
I172
aI173
aI167
aa(lp973
I172
aI9
aI167
aa(lp974
I172
aI9
aI173
aa(lp975
I172
aI170
aI167
aa(lp976
I172
aI170
aI173
aa(lp977
I172
aI173
aI24
aa(lp978
I172
aI9
aI24
aa(lp979
I172
aI14
aI24
aa(lp980
I172
aI173
aI171
aa(lp981
I172
aI168
aI171
aa(lp982
I172
aI168
aI173
aa(lp983
I172
aI170
aI171
aa(lp984
I172
aI168
aI170
aa(lp985
I172
aI164
aI171
aa(lp986
I172
aI164
aI173
aa(lp987
I39
aI45
aI46
aa(lp988
I39
aI34
aI46
aa(lp989
I39
aI34
aI45
aa(lp990
I39
aI46
aI7
aa(lp991
I39
aI45
aI7
aa(lp992
I122
aI46
aI7
aa(lp993
I39
aI122
aI7
aa(lp994
I39
aI122
aI46
aa(lp995
I39
aI38
aI121
aa(lp996
I39
aI122
aI121
aa(lp997
I39
aI122
aI38
aa(lp998
I39
aI141
aI7
aa(lp999
I39
aI141
aI45
aa(lp1000
I39
aI122
aI141
aa(lp1001
I39
aI45
aI121
aa(lp1002
I39
aI141
aI121
aa(lp1003
I39
aI121
aI135
aa(lp1004
I39
aI38
aI135
aa(lp1005
I38
aI34
aI135
aa(lp1006
I39
aI34
aI135
aa(lp1007
I39
aI38
aI34
aa(lp1008
I39
aI135
aI134
aa(lp1009
I39
aI121
aI134
aa(lp1010
I39
aI45
aI134
aa(lp1011
I39
aI34
aI134
aa(lp1012
I20
aI115
aI200
aa(lp1013
I20
aI120
aI200
aa(lp1014
I20
aI120
aI115
aa(lp1015
I20
aI122
aI200
aa(lp1016
I20
aI122
aI120
aa(lp1017
I20
aI124
aI200
aa(lp1018
I20
aI115
aI124
aa(lp1019
I20
aI122
aI124
aa(lp1020
I20
aI195
aI115
aa(lp1021
I20
aI195
aI120
aa(lp1022
I20
aI122
aI195
aa(lp1023
I20
aI119
aI124
aa(lp1024
I20
aI115
aI119
aa(lp1025
I20
aI119
aI118
aa(lp1026
I20
aI115
aI118
aa(lp1027
I20
aI118
aI22
aa(lp1028
I20
aI119
aI22
aa(lp1029
I20
aI55
aI124
aa(lp1030
I20
aI122
aI55
aa(lp1031
I20
aI22
aI124
aa(lp1032
I20
aI125
aI124
aa(lp1033
I20
aI125
aI22
aa(lp1034
I20
aI119
aI125
aa(lp1035
I20
aI55
aI22
aa(lp1036
I20
aI58
aI22
aa(lp1037
I20
aI55
aI58
aa(lp1038
I20
aI123
aI22
aa(lp1039
I20
aI123
aI58
aa(lp1040
I20
aI123
aI118
aa(lp1041
I123
aI118
aI58
aa(lp1042
I20
aI118
aI58
aa(lp1043
I199
aI119
aI118
aa(lp1044
I199
aI123
aI118
aa(lp1045
I199
aI123
aI119
aa(lp1046
I199
aI117
aI118
aa(lp1047
I199
aI117
aI119
aa(lp1048
I117
aI123
aI118
aa(lp1049
I199
aI117
aI123
aa(lp1050
I199
aI128
aI119
aa(lp1051
I199
aI128
aI123
aa(lp1052
I199
aI119
aI116
aa(lp1053
I199
aI117
aI116
aa(lp1054
I117
aI123
aI96
aa(lp1055
I199
aI123
aI96
aa(lp1056
I199
aI117
aI96
aa(lp1057
I199
aI142
aI147
aa(lp1058
I199
aI128
aI147
aa(lp1059
I199
aI128
aI142
aa(lp1060
I199
aI139
aI147
aa(lp1061
I199
aI123
aI147
aa(lp1062
I199
aI123
aI139
aa(lp1063
I199
aI128
aI139
aa(lp1064
I199
aI101
aI147
aa(lp1065
I199
aI101
aI123
aa(lp1066
I101
aI123
aI96
aa(lp1067
I199
aI101
aI96
aa(lp1068
I199
aI96
aI97
aa(lp1069
I199
aI117
aI97
aa(lp1070
I142
aI126
aI147
aa(lp1071
I199
aI126
aI147
aa(lp1072
I199
aI142
aI126
aa(lp1073
I199
aI128
aI126
aa(lp1074
I199
aI147
aI97
aa(lp1075
I199
aI101
aI97
aa(lp1076
I101
aI96
aI97
aa(lp1077
I119
aI125
aI126
aa(lp1078
I199
aI125
aI126
aa(lp1079
I199
aI119
aI126
aa(lp1080
I199
aI119
aI125
aa(lp1081
I199
aI128
aI125
aa(lp1082
I169
aI160
aI139
aa(lp1083
I169
aI142
aI139
aa(lp1084
I169
aI142
aI160
aa(lp1085
I169
aI128
aI139
aa(lp1086
I169
aI128
aI142
aa(lp1087
I169
aI160
aI129
aa(lp1088
I169
aI142
aI129
aa(lp1089
I169
aI138
aI129
aa(lp1090
I169
aI160
aI138
aa(lp1091
I169
aI5
aI129
aa(lp1092
I169
aI5
aI138
aa(lp1093
I169
aI9
aI138
aa(lp1094
I169
aI9
aI5
aa(lp1095
I8
aI70
aI69
aa(lp1096
I8
aI148
aI69
aa(lp1097
I8
aI148
aI70
aa(lp1098
I28
aI50
aI192
aa(lp1099
I28
aI193
aI192
aa(lp1100
I28
aI193
aI50
aa(lp1101
I28
aI18
aI192
aa(lp1102
I28
aI35
aI192
aa(lp1103
I28
aI35
aI18
aa(lp1104
I28
aI75
aI192
aa(lp1105
I28
aI75
aI50
aa(lp1106
I28
aI18
aI15
aa(lp1107
I28
aI77
aI15
aa(lp1108
I28
aI77
aI18
aa(lp1109
I28
aI35
aI15
aa(lp1110
I48
aI77
aI11
aa(lp1111
I28
aI77
aI11
aa(lp1112
I28
aI48
aI11
aa(lp1113
I28
aI48
aI77
aa(lp1114
I48
aI50
aI77
aa(lp1115
I28
aI50
aI77
aa(lp1116
I28
aI48
aI50
aa(lp1117
I28
aI11
aI15
aa(lp1118
I28
aI63
aI11
aa(lp1119
I28
aI48
aI63
aa(lp1120
I48
aI63
aI50
aa(lp1121
I28
aI63
aI50
aa(lp1122
I28
aI63
aI15
aa(lp1123
I28
aI35
aI63
aa(lp1124
I76
aI161
aI165
aa(lp1125
I76
aI193
aI165
aa(lp1126
I76
aI193
aI161
aa(lp1127
I76
aI50
aI77
aa(lp1128
I76
aI28
aI77
aa(lp1129
I76
aI28
aI50
aa(lp1130
I76
aI193
aI50
aa(lp1131
I76
aI28
aI193
aa(lp1132
I76
aI192
aI165
aa(lp1133
I76
aI193
aI192
aa(lp1134
I76
aI28
aI192
aa(lp1135
I18
aI192
aI165
aa(lp1136
I76
aI18
aI165
aa(lp1137
I76
aI18
aI192
aa(lp1138
I76
aI28
aI18
aa(lp1139
I76
aI77
aI18
aa(lp1140
I76
aI166
aI165
aa(lp1141
I76
aI166
aI18
aa(lp1142
I166
aI77
aI165
aa(lp1143
I76
aI77
aI165
aa(lp1144
I76
aI166
aI77
aa(lp1145
I112
aI196
aI114
aa(lp1146
I112
aI111
aI114
aa(lp1147
I112
aI111
aI196
aa(lp1148
I111
aI58
aI62
aa(lp1149
I112
aI58
aI62
aa(lp1150
I112
aI111
aI62
aa(lp1151
I112
aI111
aI58
aa(lp1152
I112
aI123
aI62
aa(lp1153
I112
aI123
aI58
aa(lp1154
I112
aI118
aI58
aa(lp1155
I112
aI123
aI118
aa(lp1156
I112
aI117
aI118
aa(lp1157
I112
aI117
aI123
aa(lp1158
I112
aI115
aI114
aa(lp1159
I112
aI117
aI114
aa(lp1160
I112
aI117
aI115
aa(lp1161
I112
aI115
aI118
aa(lp1162
I112
aI195
aI114
aa(lp1163
I112
aI195
aI115
aa(lp1164
I112
aI20
aI115
aa(lp1165
I112
aI20
aI195
aa(lp1166
I112
aI111
aI195
aa(lp1167
I112
aI20
aI58
aa(lp1168
I112
aI20
aI118
aa(lp1169
I43
aI196
aI62
aa(lp1170
I43
aI94
aI62
aa(lp1171
I43
aI94
aI196
aa(lp1172
I43
aI123
aI62
aa(lp1173
I43
aI112
aI62
aa(lp1174
I43
aI112
aI123
aa(lp1175
I43
aI95
aI114
aa(lp1176
I43
aI96
aI114
aa(lp1177
I43
aI96
aI95
aa(lp1178
I43
aI111
aI62
aa(lp1179
I43
aI111
aI196
aa(lp1180
I43
aI112
aI111
aa(lp1181
I43
aI112
aI196
aa(lp1182
I43
aI196
aI114
aa(lp1183
I43
aI196
aI95
aa(lp1184
I43
aI112
aI114
aa(lp1185
I43
aI123
aI96
aa(lp1186
I43
aI117
aI96
aa(lp1187
I43
aI117
aI123
aa(lp1188
I43
aI112
aI117
aa(lp1189
I43
aI117
aI114
aa(lp1190
I40
aI68
aI145
aa(lp1191
I40
aI157
aI145
aa(lp1192
I40
aI157
aI68
aa(lp1193
I40
aI41
aI145
aa(lp1194
I40
aI157
aI41
aa(lp1195
I40
aI144
aI145
aa(lp1196
I40
aI136
aI145
aa(lp1197
I40
aI136
aI144
aa(lp1198
I40
aI69
aI41
aa(lp1199
I40
aI157
aI69
aa(lp1200
I157
aI30
aI69
aa(lp1201
I40
aI30
aI69
aa(lp1202
I40
aI157
aI30
aa(lp1203
I40
aI143
aI145
aa(lp1204
I40
aI143
aI41
aa(lp1205
I40
aI143
aI144
aa(lp1206
I40
aI148
aI41
aa(lp1207
I40
aI148
aI69
aa(lp1208
I148
aI30
aI69
aa(lp1209
I40
aI148
aI30
aa(lp1210
I40
aI148
aI143
aa(lp1211
I143
aI30
aI144
aa(lp1212
I40
aI30
aI144
aa(lp1213
I40
aI143
aI30
aa(lp1214
I148
aI143
aI30
aa(lp1215
I155
aI68
aI156
aa(lp1216
I155
aI157
aI156
aa(lp1217
I155
aI157
aI68
aa(lp1218
I155
aI193
aI50
aa(lp1219
I155
aI75
aI50
aa(lp1220
I155
aI75
aI193
aa(lp1221
I155
aI190
aI156
aa(lp1222
I155
aI68
aI190
aa(lp1223
I75
aI68
aI190
aa(lp1224
I155
aI75
aI190
aa(lp1225
I155
aI75
aI68
aa(lp1226
I155
aI192
aI156
aa(lp1227
I155
aI193
aI156
aa(lp1228
I155
aI193
aI192
aa(lp1229
I155
aI75
aI192
aa(lp1230
I192
aI190
aI156
aa(lp1231
I155
aI192
aI190
aa(lp1232
I75
aI192
aI190
aa(lp1233
I158
aI30
aI69
aa(lp1234
I158
aI157
aI69
aa(lp1235
I158
aI157
aI30
aa(lp1236
I158
aI193
aI50
aa(lp1237
I158
aI155
aI50
aa(lp1238
I158
aI155
aI193
aa(lp1239
I158
aI157
aI156
aa(lp1240
I158
aI155
aI156
aa(lp1241
I158
aI155
aI157
aa(lp1242
I82
aI196
aI180
aa(lp1243
I82
aI179
aI180
aa(lp1244
I82
aI179
aI196
aa(lp1245
I82
aI84
aI180
aa(lp1246
I82
aI84
aI196
aa(lp1247
I82
aI84
aI179
aa(lp1248
I83
aI84
aI196
aa(lp1249
I82
aI83
aI196
aa(lp1250
I82
aI83
aI84
aa(lp1251
I82
aI196
aI81
aa(lp1252
I82
aI94
aI81
aa(lp1253
I82
aI94
aI196
aa(lp1254
I83
aI94
aI196
aa(lp1255
I82
aI83
aI94
aa(lp1256
I82
aI177
aI108
aa(lp1257
I82
aI81
aI108
aa(lp1258
I82
aI81
aI177
aa(lp1259
I82
aI196
aI108
aa(lp1260
I82
aI179
aI108
aa(lp1261
I82
aI81
aI10
aa(lp1262
I82
aI94
aI10
aa(lp1263
I82
aI83
aI10
aa(lp1264
I82
aI83
aI81
aa(lp1265
I82
aI136
aI108
aa(lp1266
I82
aI136
aI177
aa(lp1267
I82
aI179
aI136
aa(lp1268
I179
aI136
aI177
aa(lp1269
I82
aI179
aI177
aa(lp1270
I66
aI34
aI46
aa(lp1271
I66
aI39
aI46
aa(lp1272
I66
aI39
aI34
aa(lp1273
I66
aI38
aI34
aa(lp1274
I66
aI39
aI38
aa(lp1275
I66
aI34
aI135
aa(lp1276
I66
aI38
aI135
aa(lp1277
I130
aI55
aI65
aa(lp1278
I130
aI122
aI65
aa(lp1279
I130
aI122
aI55
aa(lp1280
I130
aI36
aI65
aa(lp1281
I130
aI36
aI55
aa(lp1282
I130
aI65
aI46
aa(lp1283
I130
aI36
aI46
aa(lp1284
I36
aI55
aI58
aa(lp1285
I130
aI55
aI58
aa(lp1286
I130
aI36
aI58
aa(lp1287
I130
aI46
aI7
aa(lp1288
I130
aI65
aI7
aa(lp1289
I130
aI122
aI7
aa(lp1290
I130
aI122
aI46
aa(lp1291
I130
aI20
aI58
aa(lp1292
I130
aI20
aI55
aa(lp1293
I130
aI20
aI122
aa(lp1294
I130
aI39
aI46
aa(lp1295
I130
aI39
aI122
aa(lp1296
I130
aI66
aI46
aa(lp1297
I130
aI66
aI39
aa(lp1298
I130
aI29
aI46
aa(lp1299
I130
aI36
aI29
aa(lp1300
I188
aI44
aI86
aa(lp1301
I188
aI80
aI86
aa(lp1302
I188
aI80
aI44
aa(lp1303
I188
aI86
aI178
aa(lp1304
I188
aI185
aI178
aa(lp1305
I188
aI185
aI86
aa(lp1306
I188
aI187
aI178
aa(lp1307
I188
aI187
aI185
aa(lp1308
I188
aI86
aI89
aa(lp1309
I188
aI44
aI89
aa(lp1310
I188
aI86
aI186
aa(lp1311
I188
aI185
aI186
aa(lp1312
I188
aI187
aI186
aa(lp1313
I188
aI186
aI89
aa(lp1314
I30
aI144
aI177
aa(lp1315
I175
aI144
aI177
aa(lp1316
I175
aI30
aI177
aa(lp1317
I175
aI30
aI144
aa(lp1318
I175
aI81
aI177
aa(lp1319
I175
aI81
aI144
aa(lp1320
I72
aI30
aI144
aa(lp1321
I175
aI72
aI144
aa(lp1322
I175
aI72
aI30
aa(lp1323
I72
aI81
aI144
aa(lp1324
I175
aI72
aI81
aa(lp1325
I74
aI75
aI50
aa(lp1326
I74
aI28
aI50
aa(lp1327
I74
aI28
aI75
aa(lp1328
I92
aI190
aI53
aa(lp1329
I74
aI190
aI53
aa(lp1330
I74
aI92
aI53
aa(lp1331
I74
aI92
aI190
aa(lp1332
I74
aI35
aI53
aa(lp1333
I74
aI92
aI35
aa(lp1334
I192
aI190
aI53
aa(lp1335
I74
aI192
aI53
aa(lp1336
I74
aI192
aI190
aa(lp1337
I74
aI75
aI190
aa(lp1338
I74
aI75
aI192
aa(lp1339
I74
aI35
aI192
aa(lp1340
I74
aI28
aI192
aa(lp1341
I74
aI28
aI35
aa(lp1342
I74
aI35
aI63
aa(lp1343
I74
aI92
aI63
aa(lp1344
I74
aI28
aI63
aa(lp1345
I78
aI77
aI11
aa(lp1346
I78
aI166
aI11
aa(lp1347
I78
aI166
aI77
aa(lp1348
I78
aI32
aI11
aa(lp1349
I78
aI32
aI166
aa(lp1350
I78
aI77
aI165
aa(lp1351
I78
aI76
aI165
aa(lp1352
I78
aI76
aI77
aa(lp1353
I78
aI166
aI165
aa(lp1354
I78
aI161
aI165
aa(lp1355
I78
aI76
aI161
aa(lp1356
I54
aI6
aI55
aa(lp1357
I54
aI36
aI55
aa(lp1358
I54
aI36
aI6
aa(lp1359
I54
aI55
aI129
aa(lp1360
I54
aI6
aI129
aa(lp1361
I54
aI55
aI58
aa(lp1362
I54
aI36
aI58
aa(lp1363
I54
aI6
aI5
aa(lp1364
I54
aI36
aI5
aa(lp1365
I182
aI36
aI5
aa(lp1366
I54
aI182
aI5
aa(lp1367
I54
aI182
aI36
aa(lp1368
I54
aI5
aI129
aa(lp1369
I54
aI128
aI58
aa(lp1370
I54
aI182
aI58
aa(lp1371
I54
aI182
aI128
aa(lp1372
I54
aI22
aI129
aa(lp1373
I54
aI128
aI129
aa(lp1374
I54
aI128
aI22
aa(lp1375
I54
aI169
aI129
aa(lp1376
I54
aI169
aI5
aa(lp1377
I169
aI182
aI5
aa(lp1378
I54
aI169
aI182
aa(lp1379
I54
aI123
aI58
aa(lp1380
I54
aI55
aI123
aa(lp1381
I54
aI128
aI123
aa(lp1382
I54
aI127
aI129
aa(lp1383
I54
aI127
aI22
aa(lp1384
I54
aI127
aI55
aa(lp1385
I54
aI55
aI22
aa(lp1386
I54
aI123
aI22
aa(lp1387
I54
aI142
aI129
aa(lp1388
I54
aI128
aI142
aa(lp1389
I54
aI169
aI142
aa(lp1390
I54
aI169
aI128
aa(lp1391
I54
aI128
aI139
aa(lp1392
I54
aI182
aI139
aa(lp1393
I54
aI169
aI139
aa(lp1394
I169
aI182
aI139
aa(lp1395
I105
aI106
aI107
aa(lp1396
I52
aI106
aI107
aa(lp1397
I52
aI105
aI107
aa(lp1398
I52
aI105
aI106
aa(lp1399
I109
aI106
aI107
aa(lp1400
I52
aI109
aI107
aa(lp1401
I52
aI109
aI106
aa(lp1402
I52
aI109
aI105
aa(lp1403
I52
aI105
aI60
aa(lp1404
I52
aI109
aI60
aa(lp1405
I109
aI21
aI60
aa(lp1406
I52
aI21
aI60
aa(lp1407
I52
aI109
aI21
aa(lp1408
I17
aI105
aI107
aa(lp1409
I52
aI17
aI107
aa(lp1410
I52
aI17
aI105
aa(lp1411
I52
aI167
aI107
aa(lp1412
I52
aI15
aI107
aa(lp1413
I52
aI15
aI167
aa(lp1414
I52
aI21
aI167
aa(lp1415
I52
aI21
aI15
aa(lp1416
I52
aI90
aI60
aa(lp1417
I52
aI105
aI90
aa(lp1418
I52
aI18
aI107
aa(lp1419
I52
aI18
aI15
aa(lp1420
I17
aI18
aI107
aa(lp1421
I52
aI17
aI18
aa(lp1422
I52
aI17
aI15
aa(lp1423
I52
aI15
aI90
aa(lp1424
I52
aI17
aI90
aa(lp1425
I52
aI49
aI90
aa(lp1426
I52
aI49
aI15
aa(lp1427
I52
aI49
aI60
aa(lp1428
I52
aI21
aI49
aa(lp1429
I52
aI11
aI15
aa(lp1430
I52
aI49
aI11
aa(lp1431
I52
aI21
aI11
aa(lp1432
I21
aI9
aI5
aa(lp1433
I27
aI9
aI5
aa(lp1434
I27
aI21
aI5
aa(lp1435
I27
aI21
aI9
aa(lp1436
I27
aI169
aI5
aa(lp1437
I27
aI169
aI9
aa(lp1438
I27
aI109
aI21
aa(lp1439
I27
aI52
aI21
aa(lp1440
I27
aI52
aI109
aa(lp1441
I27
aI138
aI107
aa(lp1442
I27
aI9
aI107
aa(lp1443
I27
aI9
aI138
aa(lp1444
I27
aI169
aI138
aa(lp1445
I160
aI138
aI107
aa(lp1446
I27
aI160
aI107
aa(lp1447
I27
aI160
aI138
aa(lp1448
I27
aI169
aI160
aa(lp1449
I27
aI167
aI107
aa(lp1450
I27
aI9
aI167
aa(lp1451
I27
aI52
aI107
aa(lp1452
I27
aI52
aI167
aa(lp1453
I27
aI21
aI167
aa(lp1454
I98
aI197
aI97
aa(lp1455
I98
aI101
aI97
aa(lp1456
I98
aI101
aI197
aa(lp1457
I98
aI84
aI97
aa(lp1458
I98
aI84
aI197
aa(lp1459
I98
aI94
aI102
aa(lp1460
I98
aI83
aI102
aa(lp1461
I98
aI83
aI94
aa(lp1462
I98
aI95
aI97
aa(lp1463
I98
aI96
aI97
aa(lp1464
I98
aI96
aI95
aa(lp1465
I98
aI43
aI95
aa(lp1466
I98
aI43
aI96
aa(lp1467
I98
aI197
aI102
aa(lp1468
I98
aI84
aI102
aa(lp1469
I98
aI83
aI84
aa(lp1470
I98
aI196
aI95
aa(lp1471
I98
aI43
aI196
aa(lp1472
I98
aI94
aI196
aa(lp1473
I98
aI83
aI196
aa(lp1474
I98
aI43
aI94
aa(lp1475
I98
aI180
aI97
aa(lp1476
I98
aI95
aI180
aa(lp1477
I98
aI84
aI180
aa(lp1478
I98
aI84
aI95
aa(lp1479
I98
aI84
aI196
aa(lp1480
I152
aI148
aI69
aa(lp1481
I152
aI8
aI69
aa(lp1482
I152
aI8
aI148
aa(lp1483
I8
aI148
aI143
aa(lp1484
I152
aI148
aI143
aa(lp1485
I152
aI8
aI143
aa(lp1486
I152
aI30
aI69
aa(lp1487
I152
aI148
aI30
aa(lp1488
I152
aI143
aI30
aa(lp1489
I152
aI158
aI69
aa(lp1490
I152
aI158
aI30
aa(lp1491
I152
aI72
aI30
aa(lp1492
I152
aI175
aI30
aa(lp1493
I152
aI175
aI72
aa(lp1494
I152
aI30
aI144
aa(lp1495
I152
aI143
aI144
aa(lp1496
I152
aI72
aI144
aa(lp1497
I152
aI72
aI143
aa(lp1498
I8
aI151
aI143
aa(lp1499
I13
aI151
aI143
aa(lp1500
I13
aI8
aI143
aa(lp1501
I13
aI8
aI151
aa(lp1502
I13
aI148
aI143
aa(lp1503
I13
aI8
aI148
aa(lp1504
I13
aI143
aI149
aa(lp1505
I13
aI148
aI149
aa(lp1506
I13
aI149
aI150
aa(lp1507
I13
aI151
aI150
aa(lp1508
I13
aI151
aI149
aa(lp1509
I13
aI148
aI70
aa(lp1510
I13
aI8
aI70
aa(lp1511
I13
aI163
aI150
aa(lp1512
I13
aI163
aI149
aa(lp1513
I13
aI148
aI163
aa(lp1514
I13
aI70
aI163
aa(lp1515
I13
aI164
aI150
aa(lp1516
I13
aI164
aI163
aa(lp1517
I13
aI70
aI164
aa(lp1518
I25
aI29
aI137
aa(lp1519
I25
aI151
aI137
aa(lp1520
I25
aI151
aI29
aa(lp1521
I25
aI151
aI150
aa(lp1522
I25
aI13
aI150
aa(lp1523
I25
aI13
aI151
aa(lp1524
I25
aI8
aI151
aa(lp1525
I25
aI13
aI8
aa(lp1526
I25
aI8
aI70
aa(lp1527
I25
aI13
aI70
aa(lp1528
I99
aI94
aI62
aa(lp1529
I99
aI43
aI62
aa(lp1530
I99
aI43
aI94
aa(lp1531
I99
aI61
aI62
aa(lp1532
I99
aI94
aI61
aa(lp1533
I99
aI61
aI102
aa(lp1534
I99
aI94
aI102
aa(lp1535
I99
aI98
aI102
aa(lp1536
I99
aI98
aI94
aa(lp1537
I99
aI98
aI43
aa(lp1538
I99
aI103
aI102
aa(lp1539
I99
aI103
aI61
aa(lp1540
I99
aI101
aI102
aa(lp1541
I99
aI101
aI103
aa(lp1542
I103
aI61
aI139
aa(lp1543
I99
aI61
aI139
aa(lp1544
I99
aI103
aI139
aa(lp1545
I99
aI101
aI139
aa(lp1546
I99
aI139
aI62
aa(lp1547
I99
aI123
aI62
aa(lp1548
I99
aI123
aI139
aa(lp1549
I99
aI43
aI123
aa(lp1550
I99
aI101
aI123
aa(lp1551
I99
aI197
aI102
aa(lp1552
I99
aI101
aI197
aa(lp1553
I99
aI98
aI197
aa(lp1554
I99
aI98
aI101
aa(lp1555
I99
aI43
aI96
aa(lp1556
I99
aI98
aI96
aa(lp1557
I99
aI182
aI62
aa(lp1558
I99
aI182
aI139
aa(lp1559
I99
aI182
aI61
aa(lp1560
I182
aI61
aI139
aa(lp1561
I99
aI123
aI96
aa(lp1562
I99
aI101
aI96
aa(lp1563
I99
aI96
aI97
aa(lp1564
I99
aI101
aI97
aa(lp1565
I99
aI98
aI97
aa(lp1566
I153
aI157
aI30
aa(lp1567
I153
aI40
aI30
aa(lp1568
I153
aI40
aI157
aa(lp1569
I153
aI157
aI68
aa(lp1570
I153
aI40
aI68
aa(lp1571
I153
aI30
aI177
aa(lp1572
I153
aI175
aI177
aa(lp1573
I153
aI175
aI30
aa(lp1574
I153
aI144
aI177
aa(lp1575
I153
aI30
aI144
aa(lp1576
I153
aI40
aI144
aa(lp1577
I153
aI136
aI177
aa(lp1578
I153
aI136
aI144
aa(lp1579
I153
aI40
aI136
aa(lp1580
I179
aI178
aI177
aa(lp1581
I153
aI178
aI177
aa(lp1582
I153
aI179
aI177
aa(lp1583
I153
aI179
aI178
aa(lp1584
I153
aI68
aI178
aa(lp1585
I153
aI179
aI68
aa(lp1586
I153
aI179
aI136
aa(lp1587
I153
aI136
aI145
aa(lp1588
I153
aI179
aI145
aa(lp1589
I153
aI68
aI145
aa(lp1590
I153
aI40
aI145
aa(lp1591
I79
aI193
aI50
aa(lp1592
I79
aI76
aI50
aa(lp1593
I79
aI76
aI193
aa(lp1594
I79
aI158
aI50
aa(lp1595
I79
aI158
aI193
aa(lp1596
I79
aI50
aI77
aa(lp1597
I79
aI76
aI77
aa(lp1598
I79
aI78
aI77
aa(lp1599
I79
aI78
aI76
aa(lp1600
I159
aI193
aI161
aa(lp1601
I159
aI76
aI161
aa(lp1602
I159
aI76
aI193
aa(lp1603
I159
aI161
aI156
aa(lp1604
I159
aI193
aI156
aa(lp1605
I159
aI79
aI193
aa(lp1606
I159
aI79
aI76
aa(lp1607
I159
aI158
aI193
aa(lp1608
I159
aI79
aI158
aa(lp1609
I159
aI155
aI156
aa(lp1610
I159
aI155
aI193
aa(lp1611
I159
aI158
aI156
aa(lp1612
I159
aI158
aI155
aa(lp1613
I159
aI157
aI156
aa(lp1614
I159
aI157
aI161
aa(lp1615
I159
aI161
aI69
aa(lp1616
I159
aI157
aI69
aa(lp1617
I159
aI158
aI157
aa(lp1618
I159
aI158
aI69
aa(lp1619
I71
aI83
aI84
aa(lp1620
I71
aI82
aI84
aa(lp1621
I71
aI82
aI83
aa(lp1622
I71
aI86
aI178
aa(lp1623
I71
aI84
aI178
aa(lp1624
I71
aI84
aI86
aa(lp1625
I71
aI83
aI86
aa(lp1626
I71
aI179
aI178
aa(lp1627
I71
aI84
aI179
aa(lp1628
I71
aI82
aI179
aa(lp1629
I71
aI178
aI177
aa(lp1630
I71
aI179
aI177
aa(lp1631
I71
aI82
aI177
aa(lp1632
I71
aI81
aI177
aa(lp1633
I71
aI82
aI81
aa(lp1634
I71
aI83
aI81
aa(lp1635
I71
aI188
aI178
aa(lp1636
I71
aI188
aI86
aa(lp1637
I71
aI80
aI86
aa(lp1638
I71
aI80
aI83
aa(lp1639
I80
aI81
aI177
aa(lp1640
I71
aI80
aI177
aa(lp1641
I71
aI80
aI81
aa(lp1642
I71
aI188
aI80
aa(lp1643
I47
aI29
aI46
aa(lp1644
I47
aI151
aI46
aa(lp1645
I47
aI151
aI29
aa(lp1646
I47
aI34
aI46
aa(lp1647
I47
aI151
aI34
aa(lp1648
I47
aI66
aI46
aa(lp1649
I47
aI66
aI34
aa(lp1650
I47
aI25
aI29
aa(lp1651
I47
aI25
aI151
aa(lp1652
I8
aI72
aI143
aa(lp1653
I47
aI72
aI143
aa(lp1654
I47
aI8
aI143
aa(lp1655
I47
aI8
aI72
aa(lp1656
I47
aI151
aI143
aa(lp1657
I47
aI8
aI151
aa(lp1658
I47
aI25
aI8
aa(lp1659
I93
aI20
aI58
aa(lp1660
I93
aI130
aI58
aa(lp1661
I93
aI130
aI20
aa(lp1662
I93
aI20
aI122
aa(lp1663
I93
aI130
aI122
aa(lp1664
I93
aI122
aI195
aa(lp1665
I93
aI20
aI195
aa(lp1666
I93
aI112
aI58
aa(lp1667
I93
aI112
aI20
aa(lp1668
I93
aI112
aI195
aa(lp1669
I93
aI111
aI58
aa(lp1670
I93
aI112
aI111
aa(lp1671
I93
aI111
aI195
aa(lp1672
I93
aI195
aI38
aa(lp1673
I93
aI122
aI38
aa(lp1674
I93
aI39
aI122
aa(lp1675
I93
aI130
aI39
aa(lp1676
I93
aI66
aI39
aa(lp1677
I93
aI130
aI66
aa(lp1678
I93
aI38
aI100
aa(lp1679
I93
aI195
aI100
aa(lp1680
I93
aI39
aI38
aa(lp1681
I93
aI66
aI38
aa(lp1682
I93
aI100
aI108
aa(lp1683
I93
aI195
aI108
aa(lp1684
I57
aI36
aI58
aa(lp1685
I57
aI130
aI58
aa(lp1686
I57
aI130
aI36
aa(lp1687
I3
aI58
aI62
aa(lp1688
I57
aI58
aI62
aa(lp1689
I57
aI3
aI62
aa(lp1690
I57
aI3
aI58
aa(lp1691
I57
aI182
aI62
aa(lp1692
I57
aI182
aI58
aa(lp1693
I57
aI182
aI3
aa(lp1694
I57
aI54
aI58
aa(lp1695
I57
aI54
aI36
aa(lp1696
I57
aI54
aI182
aa(lp1697
I57
aI182
aI36
aa(lp1698
I57
aI36
aI5
aa(lp1699
I57
aI182
aI5
aa(lp1700
I57
aI61
aI3
aa(lp1701
I57
aI182
aI61
aa(lp1702
I73
aI63
aI50
aa(lp1703
I73
aI48
aI50
aa(lp1704
I73
aI48
aI63
aa(lp1705
I73
aI63
aI49
aa(lp1706
I73
aI44
aI49
aa(lp1707
I73
aI44
aI63
aa(lp1708
I73
aI48
aI49
aa(lp1709
I48
aI44
aI49
aa(lp1710
I73
aI48
aI44
aa(lp1711
I73
aI28
aI50
aa(lp1712
I73
aI28
aI63
aa(lp1713
I73
aI74
aI50
aa(lp1714
I73
aI74
aI28
aa(lp1715
I73
aI74
aI63
aa(lp1716
I73
aI92
aI63
aa(lp1717
I73
aI92
aI44
aa(lp1718
I73
aI74
aI92
aa(lp1719
I73
aI75
aI50
aa(lp1720
I73
aI74
aI75
aa(lp1721
I33
aI21
aI60
aa(lp1722
I33
aI109
aI60
aa(lp1723
I33
aI109
aI21
aa(lp1724
I33
aI21
aI5
aa(lp1725
I33
aI27
aI5
aa(lp1726
I33
aI27
aI21
aa(lp1727
I33
aI64
aI60
aa(lp1728
I33
aI109
aI64
aa(lp1729
I33
aI61
aI64
aa(lp1730
I33
aI109
aI61
aa(lp1731
I33
aI4
aI60
aa(lp1732
I33
aI64
aI4
aa(lp1733
I33
aI61
aI4
aa(lp1734
I1
aI4
aI60
aa(lp1735
I33
aI1
aI60
aa(lp1736
I33
aI1
aI4
aa(lp1737
I33
aI21
aI1
aa(lp1738
I32
aI1
aI4
aa(lp1739
I33
aI32
aI4
aa(lp1740
I33
aI32
aI1
aa(lp1741
I33
aI32
aI21
aa(lp1742
I33
aI3
aI4
aa(lp1743
I33
aI61
aI3
aa(lp1744
I57
aI3
aI4
aa(lp1745
I33
aI57
aI4
aa(lp1746
I33
aI57
aI3
aa(lp1747
I33
aI57
aI61
aa(lp1748
I182
aI61
aI5
aa(lp1749
I33
aI61
aI5
aa(lp1750
I33
aI182
aI5
aa(lp1751
I33
aI182
aI61
aa(lp1752
I33
aI57
aI5
aa(lp1753
I33
aI57
aI182
aa(lp1754
I33
aI21
aI24
aa(lp1755
I33
aI32
aI24
aa(lp1756
I33
aI5
aI24
aa(lp1757
I33
aI9
aI24
aa(lp1758
I33
aI9
aI5
aa(lp1759
I33
aI21
aI9
aa(lp1760
I33
aI36
aI24
aa(lp1761
I33
aI36
aI5
aa(lp1762
I33
aI57
aI36
aa(lp1763
I110
aI109
aI61
aa(lp1764
I110
aI33
aI61
aa(lp1765
I110
aI33
aI109
aa(lp1766
I110
aI169
aI5
aa(lp1767
I110
aI27
aI5
aa(lp1768
I110
aI27
aI169
aa(lp1769
I110
aI169
aI160
aa(lp1770
I110
aI27
aI160
aa(lp1771
I110
aI103
aI61
aa(lp1772
I110
aI109
aI103
aa(lp1773
I110
aI160
aI139
aa(lp1774
I110
aI169
aI139
aa(lp1775
I110
aI61
aI5
aa(lp1776
I110
aI33
aI5
aa(lp1777
I110
aI33
aI27
aa(lp1778
I110
aI109
aI21
aa(lp1779
I110
aI27
aI21
aa(lp1780
I110
aI27
aI109
aa(lp1781
I110
aI33
aI21
aa(lp1782
I110
aI182
aI5
aa(lp1783
I110
aI182
aI61
aa(lp1784
I110
aI169
aI182
aa(lp1785
I110
aI160
aI107
aa(lp1786
I110
aI27
aI107
aa(lp1787
I110
aI103
aI139
aa(lp1788
I110
aI103
aI160
aa(lp1789
I110
aI61
aI139
aa(lp1790
I110
aI160
aI106
aa(lp1791
I110
aI103
aI106
aa(lp1792
I110
aI109
aI106
aa(lp1793
I110
aI182
aI139
aa(lp1794
I110
aI106
aI107
aa(lp1795
I110
aI109
aI107
aa(lp1796
I110
aI52
aI107
aa(lp1797
I110
aI52
aI109
aa(lp1798
I110
aI27
aI52
aa(lp1799
I31
aI70
aI69
aa(lp1800
I31
aI8
aI69
aa(lp1801
I31
aI8
aI70
aa(lp1802
I31
aI152
aI69
aa(lp1803
I31
aI152
aI8
aa(lp1804
I23
aI29
aI137
aa(lp1805
I23
aI25
aI137
aa(lp1806
I23
aI25
aI29
aa(lp1807
I23
aI14
aI137
aa(lp1808
I23
aI14
aI29
aa(lp1809
I23
aI14
aI24
aa(lp1810
I23
aI172
aI24
aa(lp1811
I23
aI172
aI14
aa(lp1812
I23
aI173
aI24
aa(lp1813
I23
aI172
aI173
aa(lp1814
I23
aI138
aI137
aa(lp1815
I23
aI14
aI138
aa(lp1816
I23
aI172
aI138
aa(lp1817
I23
aI137
aI150
aa(lp1818
I23
aI151
aI150
aa(lp1819
I23
aI151
aI137
aa(lp1820
I23
aI25
aI150
aa(lp1821
I23
aI25
aI151
aa(lp1822
I23
aI170
aI138
aa(lp1823
I23
aI172
aI170
aa(lp1824
I23
aI170
aI150
aa(lp1825
I23
aI170
aI137
aa(lp1826
I23
aI171
aI150
aa(lp1827
I23
aI170
aI171
aa(lp1828
I23
aI164
aI150
aa(lp1829
I23
aI164
aI171
aa(lp1830
I23
aI172
aI171
aa(lp1831
I23
aI172
aI164
aa(lp1832
I23
aI13
aI150
aa(lp1833
I23
aI13
aI164
aa(lp1834
I23
aI25
aI13
aa(lp1835
I25
aI13
aI164
aa(lp1836
I23
aI25
aI164
aa(lp1837
I23
aI140
aI137
aa(lp1838
I23
aI138
aI140
aa(lp1839
I23
aI170
aI140
aa(lp1840
I170
aI138
aI140
aa(lp1841
I154
aI157
aI68
aa(lp1842
I154
aI153
aI68
aa(lp1843
I154
aI153
aI157
aa(lp1844
I154
aI155
aI68
aa(lp1845
I154
aI155
aI157
aa(lp1846
I154
aI158
aI157
aa(lp1847
I154
aI158
aI155
aa(lp1848
I154
aI157
aI30
aa(lp1849
I154
aI158
aI30
aa(lp1850
I154
aI153
aI30
aa(lp1851
I154
aI155
aI50
aa(lp1852
I154
aI158
aI50
aa(lp1853
I175
aI158
aI30
aa(lp1854
I154
aI175
aI30
aa(lp1855
I154
aI175
aI158
aa(lp1856
I154
aI153
aI175
aa(lp1857
I154
aI75
aI50
aa(lp1858
I154
aI155
aI75
aa(lp1859
I154
aI75
aI68
aa(lp1860
I154
aI178
aI177
aa(lp1861
I154
aI153
aI177
aa(lp1862
I154
aI153
aI178
aa(lp1863
I154
aI68
aI178
aa(lp1864
I12
aI66
aI46
aa(lp1865
I12
aI47
aI46
aa(lp1866
I12
aI47
aI66
aa(lp1867
I12
aI29
aI46
aa(lp1868
I12
aI130
aI46
aa(lp1869
I12
aI130
aI29
aa(lp1870
I12
aI47
aI29
aa(lp1871
I12
aI36
aI29
aa(lp1872
I12
aI130
aI36
aa(lp1873
I12
aI57
aI36
aa(lp1874
I12
aI33
aI36
aa(lp1875
I12
aI33
aI57
aa(lp1876
I12
aI57
aI4
aa(lp1877
I12
aI33
aI4
aa(lp1878
I12
aI36
aI24
aa(lp1879
I12
aI33
aI24
aa(lp1880
I12
aI32
aI4
aa(lp1881
I12
aI33
aI32
aa(lp1882
I14
aI29
aI24
aa(lp1883
I12
aI29
aI24
aa(lp1884
I12
aI14
aI24
aa(lp1885
I12
aI14
aI29
aa(lp1886
I12
aI36
aI14
aa(lp1887
I12
aI32
aI24
aa(lp1888
I12
aI25
aI29
aa(lp1889
I12
aI47
aI25
aa(lp1890
I12
aI25
aI8
aa(lp1891
I12
aI47
aI8
aa(lp1892
I47
aI66
aI72
aa(lp1893
I131
aI66
aI72
aa(lp1894
I131
aI47
aI72
aa(lp1895
I131
aI47
aI66
aa(lp1896
I131
aI38
aI135
aa(lp1897
I131
aI66
aI135
aa(lp1898
I131
aI66
aI38
aa(lp1899
I131
aI100
aI135
aa(lp1900
I131
aI38
aI100
aa(lp1901
I131
aI144
aI108
aa(lp1902
I131
aI132
aI108
aa(lp1903
I131
aI132
aI144
aa(lp1904
I131
aI72
aI144
aa(lp1905
I131
aI72
aI132
aa(lp1906
I131
aI81
aI108
aa(lp1907
I131
aI81
aI144
aa(lp1908
I131
aI72
aI81
aa(lp1909
I131
aI100
aI108
aa(lp1910
I131
aI113
aI108
aa(lp1911
I131
aI113
aI100
aa(lp1912
I131
aI113
aI135
aa(lp1913
I131
aI113
aI132
aa(lp1914
I131
aI132
aI135
aa(lp1915
I131
aI93
aI108
aa(lp1916
I131
aI93
aI100
aa(lp1917
I131
aI93
aI38
aa(lp1918
I131
aI93
aI66
aa(lp1919
I131
aI108
aI10
aa(lp1920
I131
aI81
aI10
aa(lp1921
I131
aI72
aI10
aa(lp1922
I131
aI195
aI108
aa(lp1923
I131
aI93
aI195
aa(lp1924
I59
aI111
aI58
aa(lp1925
I59
aI93
aI58
aa(lp1926
I59
aI93
aI111
aa(lp1927
I59
aI58
aI62
aa(lp1928
I59
aI3
aI62
aa(lp1929
I59
aI3
aI58
aa(lp1930
I59
aI111
aI62
aa(lp1931
I59
aI62
aI10
aa(lp1932
I59
aI3
aI10
aa(lp1933
I59
aI111
aI10
aa(lp1934
I59
aI57
aI58
aa(lp1935
I59
aI57
aI3
aa(lp1936
I59
aI130
aI58
aa(lp1937
I59
aI93
aI130
aa(lp1938
I59
aI93
aI66
aa(lp1939
I59
aI131
aI66
aa(lp1940
I59
aI131
aI93
aa(lp1941
I59
aI111
aI195
aa(lp1942
I59
aI93
aI195
aa(lp1943
I59
aI131
aI195
aa(lp1944
I59
aI72
aI10
aa(lp1945
I59
aI131
aI10
aa(lp1946
I59
aI131
aI72
aa(lp1947
I59
aI108
aI10
aa(lp1948
I59
aI111
aI108
aa(lp1949
I59
aI131
aI108
aa(lp1950
I59
aI195
aI108
aa(lp1951
I191
aI187
aI178
aa(lp1952
I191
aI188
aI178
aa(lp1953
I191
aI188
aI187
aa(lp1954
I191
aI178
aI177
aa(lp1955
I191
aI154
aI177
aa(lp1956
I191
aI154
aI178
aa(lp1957
I188
aI187
aI190
aa(lp1958
I191
aI187
aI190
aa(lp1959
I191
aI188
aI190
aa(lp1960
I191
aI75
aI50
aa(lp1961
I191
aI73
aI50
aa(lp1962
I191
aI73
aI75
aa(lp1963
I191
aI154
aI50
aa(lp1964
I191
aI154
aI75
aa(lp1965
I191
aI71
aI177
aa(lp1966
I191
aI71
aI178
aa(lp1967
I191
aI71
aI188
aa(lp1968
I191
aI68
aI178
aa(lp1969
I191
aI187
aI68
aa(lp1970
I191
aI154
aI68
aa(lp1971
I191
aI68
aI190
aa(lp1972
I191
aI75
aI190
aa(lp1973
I191
aI74
aI190
aa(lp1974
I191
aI74
aI75
aa(lp1975
I73
aI74
aI190
aa(lp1976
I191
aI73
aI190
aa(lp1977
I191
aI73
aI74
aa(lp1978
I191
aI75
aI68
aa(lp1979
I189
aI92
aI44
aa(lp1980
I189
aI73
aI44
aa(lp1981
I189
aI73
aI92
aa(lp1982
I73
aI188
aI44
aa(lp1983
I189
aI188
aI44
aa(lp1984
I189
aI73
aI188
aa(lp1985
I189
aI44
aI89
aa(lp1986
I189
aI188
aI89
aa(lp1987
I189
aI91
aI89
aa(lp1988
I189
aI44
aI91
aa(lp1989
I189
aI92
aI91
aa(lp1990
I189
aI92
aI190
aa(lp1991
I189
aI74
aI190
aa(lp1992
I189
aI74
aI92
aa(lp1993
I189
aI73
aI190
aa(lp1994
I189
aI73
aI74
aa(lp1995
I189
aI188
aI190
aa(lp1996
I189
aI191
aI190
aa(lp1997
I189
aI191
aI188
aa(lp1998
I189
aI191
aI73
aa(lp1999
I191
aI73
aI188
aa(lp2000
I189
aI186
aI89
aa(lp2001
I189
aI188
aI186
aa(lp2002
I189
aI186
aI190
aa(lp2003
I189
aI91
aI190
aa(lp2004
I189
aI91
aI186
aa(lp2005
I189
aI190
aI53
aa(lp2006
I189
aI91
aI53
aa(lp2007
I189
aI92
aI53
aa(lp2008
I189
aI187
aI190
aa(lp2009
I189
aI187
aI186
aa(lp2010
I189
aI188
aI187
aa(lp2011
I174
aI152
aI69
aa(lp2012
I174
aI31
aI69
aa(lp2013
I174
aI31
aI152
aa(lp2014
I31
aI79
aI69
aa(lp2015
I174
aI79
aI69
aa(lp2016
I174
aI31
aI79
aa(lp2017
I174
aI158
aI69
aa(lp2018
I174
aI152
aI158
aa(lp2019
I79
aI158
aI69
aa(lp2020
I174
aI79
aI158
aa(lp2021
I174
aI158
aI30
aa(lp2022
I174
aI175
aI30
aa(lp2023
I174
aI175
aI158
aa(lp2024
I174
aI152
aI30
aa(lp2025
I174
aI152
aI175
aa(lp2026
I175
aI48
aI50
aa(lp2027
I174
aI48
aI50
aa(lp2028
I174
aI175
aI50
aa(lp2029
I174
aI175
aI48
aa(lp2030
I79
aI48
aI50
aa(lp2031
I174
aI79
aI50
aa(lp2032
I174
aI79
aI48
aa(lp2033
I174
aI158
aI50
aa(lp2034
I174
aI154
aI50
aa(lp2035
I174
aI154
aI158
aa(lp2036
I154
aI175
aI50
aa(lp2037
I174
aI154
aI175
aa(lp2038
I56
aI79
aI69
aa(lp2039
I56
aI31
aI69
aa(lp2040
I56
aI31
aI79
aa(lp2041
I56
aI161
aI69
aa(lp2042
I56
aI159
aI69
aa(lp2043
I56
aI159
aI161
aa(lp2044
I56
aI70
aI69
aa(lp2045
I56
aI70
aI161
aa(lp2046
I56
aI31
aI70
aa(lp2047
I56
aI158
aI69
aa(lp2048
I56
aI79
aI158
aa(lp2049
I56
aI159
aI158
aa(lp2050
I56
aI159
aI79
aa(lp2051
I56
aI161
aI162
aa(lp2052
I56
aI70
aI162
aa(lp2053
I31
aI70
aI162
aa(lp2054
I56
aI31
aI162
aa(lp2055
I31
aI78
aI162
aa(lp2056
I56
aI78
aI162
aa(lp2057
I56
aI31
aI78
aa(lp2058
I31
aI79
aI78
aa(lp2059
I56
aI79
aI78
aa(lp2060
I56
aI76
aI161
aa(lp2061
I56
aI78
aI161
aa(lp2062
I56
aI78
aI76
aa(lp2063
I56
aI159
aI76
aa(lp2064
I56
aI79
aI76
aa(lp2065
I56
aI162
aI165
aa(lp2066
I56
aI161
aI165
aa(lp2067
I78
aI162
aI165
aa(lp2068
I56
aI78
aI165
aa(lp2069
I51
aI8
aI70
aa(lp2070
I51
aI31
aI70
aa(lp2071
I51
aI31
aI8
aa(lp2072
I51
aI25
aI70
aa(lp2073
I51
aI25
aI8
aa(lp2074
I51
aI164
aI162
aa(lp2075
I51
aI70
aI162
aa(lp2076
I51
aI70
aI164
aa(lp2077
I51
aI31
aI162
aa(lp2078
I51
aI13
aI164
aa(lp2079
I51
aI13
aI70
aa(lp2080
I51
aI25
aI164
aa(lp2081
I51
aI25
aI13
aa(lp2082
I51
aI168
aI162
aa(lp2083
I51
aI168
aI164
aa(lp2084
I51
aI164
aI173
aa(lp2085
I51
aI168
aI173
aa(lp2086
I51
aI78
aI162
aa(lp2087
I51
aI31
aI78
aa(lp2088
I51
aI166
aI173
aa(lp2089
I51
aI32
aI173
aa(lp2090
I51
aI32
aI166
aa(lp2091
I51
aI168
aI166
aa(lp2092
I51
aI78
aI166
aa(lp2093
I51
aI78
aI32
aa(lp2094
I51
aI172
aI173
aa(lp2095
I51
aI172
aI164
aa(lp2096
I51
aI162
aI165
aa(lp2097
I51
aI168
aI165
aa(lp2098
I51
aI78
aI165
aa(lp2099
I51
aI166
aI165
aa(lp2100
I19
aI29
aI24
aa(lp2101
I19
aI14
aI24
aa(lp2102
I19
aI14
aI29
aa(lp2103
I19
aI23
aI24
aa(lp2104
I19
aI23
aI14
aa(lp2105
I19
aI23
aI29
aa(lp2106
I19
aI25
aI29
aa(lp2107
I19
aI23
aI25
aa(lp2108
I19
aI12
aI24
aa(lp2109
I19
aI12
aI29
aa(lp2110
I19
aI32
aI24
aa(lp2111
I19
aI12
aI32
aa(lp2112
I19
aI12
aI25
aa(lp2113
I19
aI173
aI24
aa(lp2114
I19
aI32
aI173
aa(lp2115
I19
aI23
aI173
aa(lp2116
I19
aI25
aI8
aa(lp2117
I19
aI12
aI8
aa(lp2118
I19
aI51
aI173
aa(lp2119
I19
aI51
aI32
aa(lp2120
I51
aI8
aI32
aa(lp2121
I19
aI8
aI32
aa(lp2122
I19
aI51
aI8
aa(lp2123
I19
aI51
aI25
aa(lp2124
I19
aI25
aI164
aa(lp2125
I19
aI23
aI164
aa(lp2126
I19
aI51
aI164
aa(lp2127
I19
aI172
aI173
aa(lp2128
I19
aI23
aI172
aa(lp2129
I19
aI51
aI172
aa(lp2130
I19
aI172
aI164
aa(lp2131
I26
aI66
aI46
aa(lp2132
I26
aI130
aI46
aa(lp2133
I26
aI130
aI66
aa(lp2134
I26
aI12
aI46
aa(lp2135
I26
aI12
aI66
aa(lp2136
I26
aI12
aI130
aa(lp2137
I26
aI93
aI66
aa(lp2138
I26
aI93
aI130
aa(lp2139
I26
aI59
aI66
aa(lp2140
I26
aI59
aI93
aa(lp2141
I26
aI59
aI130
aa(lp2142
I26
aI66
aI72
aa(lp2143
I26
aI47
aI72
aa(lp2144
I26
aI47
aI66
aa(lp2145
I12
aI47
aI72
aa(lp2146
I26
aI12
aI72
aa(lp2147
I26
aI12
aI47
aa(lp2148
I26
aI131
aI72
aa(lp2149
I26
aI131
aI66
aa(lp2150
I26
aI59
aI72
aa(lp2151
I26
aI59
aI131
aa(lp2152
I26
aI130
aI36
aa(lp2153
I26
aI57
aI36
aa(lp2154
I26
aI57
aI130
aa(lp2155
I26
aI12
aI36
aa(lp2156
I26
aI12
aI57
aa(lp2157
I26
aI130
aI58
aa(lp2158
I26
aI57
aI58
aa(lp2159
I26
aI59
aI58
aa(lp2160
I26
aI59
aI57
aa(lp2161
I26
aI57
aI3
aa(lp2162
I26
aI59
aI3
aa(lp2163
I26
aI3
aI10
aa(lp2164
I26
aI59
aI10
aa(lp2165
I26
aI72
aI10
aa(lp2166
I26
aI3
aI4
aa(lp2167
I26
aI57
aI4
aa(lp2168
I26
aI12
aI4
aa(lp2169
I26
aI4
aI10
aa(lp2170
I72
aI4
aI10
aa(lp2171
I26
aI72
aI4
aa(lp2172
I133
aI72
aI132
aa(lp2173
I133
aI131
aI132
aa(lp2174
I133
aI131
aI72
aa(lp2175
I133
aI47
aI72
aa(lp2176
I133
aI131
aI47
aa(lp2177
I133
aI132
aI143
aa(lp2178
I133
aI72
aI143
aa(lp2179
I133
aI47
aI143
aa(lp2180
I133
aI151
aI143
aa(lp2181
I133
aI47
aI151
aa(lp2182
I133
aI151
aI34
aa(lp2183
I133
aI47
aI34
aa(lp2184
I133
aI132
aI135
aa(lp2185
I133
aI131
aI135
aa(lp2186
I133
aI66
aI34
aa(lp2187
I133
aI47
aI66
aa(lp2188
I133
aI131
aI66
aa(lp2189
I133
aI143
aI67
aa(lp2190
I133
aI132
aI67
aa(lp2191
I133
aI34
aI67
aa(lp2192
I133
aI151
aI67
aa(lp2193
I133
aI67
aI135
aa(lp2194
I133
aI34
aI135
aa(lp2195
I133
aI66
aI135
aa(lp2196
I133
aI67
aI149
aa(lp2197
I133
aI151
aI149
aa(lp2198
I133
aI149
aI41
aa(lp2199
I133
aI67
aI41
aa(lp2200
I133
aI143
aI41
aa(lp2201
I133
aI143
aI149
aa(lp2202
I133
aI13
aI149
aa(lp2203
I133
aI13
aI143
aa(lp2204
I133
aI13
aI151
aa(lp2205
I176
aI73
aI188
aa(lp2206
I176
aI191
aI188
aa(lp2207
I176
aI191
aI73
aa(lp2208
I176
aI73
aI50
aa(lp2209
I176
aI191
aI50
aa(lp2210
I176
aI48
aI50
aa(lp2211
I176
aI175
aI50
aa(lp2212
I176
aI175
aI48
aa(lp2213
I176
aI73
aI48
aa(lp2214
I176
aI81
aI177
aa(lp2215
I176
aI80
aI177
aa(lp2216
I176
aI80
aI81
aa(lp2217
I176
aI175
aI177
aa(lp2218
I176
aI175
aI81
aa(lp2219
I175
aI80
aI81
aa(lp2220
I176
aI175
aI80
aa(lp2221
I176
aI154
aI177
aa(lp2222
I176
aI191
aI177
aa(lp2223
I176
aI191
aI154
aa(lp2224
I176
aI80
aI44
aa(lp2225
I176
aI188
aI44
aa(lp2226
I176
aI188
aI80
aa(lp2227
I73
aI80
aI44
aa(lp2228
I176
aI73
aI44
aa(lp2229
I176
aI73
aI80
aa(lp2230
I176
aI154
aI50
aa(lp2231
I176
aI154
aI175
aa(lp2232
I176
aI71
aI177
aa(lp2233
I176
aI71
aI80
aa(lp2234
I176
aI71
aI188
aa(lp2235
I176
aI191
aI71
aa(lp2236
I176
aI153
aI177
aa(lp2237
I176
aI153
aI175
aa(lp2238
I176
aI154
aI153
aa(lp2239
I42
aI31
aI79
aa(lp2240
I42
aI174
aI79
aa(lp2241
I42
aI174
aI31
aa(lp2242
I42
aI1
aI4
aa(lp2243
I42
aI32
aI4
aa(lp2244
I42
aI32
aI1
aa(lp2245
I42
aI8
aI32
aa(lp2246
I42
aI51
aI32
aa(lp2247
I42
aI51
aI8
aa(lp2248
I42
aI31
aI8
aa(lp2249
I42
aI51
aI31
aa(lp2250
I42
aI31
aI152
aa(lp2251
I42
aI174
aI152
aa(lp2252
I37
aI175
aI80
aa(lp2253
I37
aI176
aI80
aa(lp2254
I37
aI176
aI175
aa(lp2255
I37
aI175
aI48
aa(lp2256
I37
aI176
aI48
aa(lp2257
I37
aI73
aI80
aa(lp2258
I37
aI176
aI73
aa(lp2259
I37
aI73
aI48
aa(lp2260
I37
aI80
aI44
aa(lp2261
I37
aI73
aI44
aa(lp2262
I37
aI48
aI44
aa(lp2263
I37
aI4
aI60
aa(lp2264
I37
aI1
aI60
aa(lp2265
I37
aI1
aI4
aa(lp2266
I37
aI80
aI60
aa(lp2267
I37
aI80
aI4
aa(lp2268
I48
aI1
aI49
aa(lp2269
I37
aI1
aI49
aa(lp2270
I37
aI48
aI49
aa(lp2271
I37
aI48
aI1
aa(lp2272
I37
aI4
aI10
aa(lp2273
I37
aI72
aI10
aa(lp2274
I37
aI72
aI4
aa(lp2275
I37
aI80
aI10
aa(lp2276
I37
aI80
aI72
aa(lp2277
I37
aI72
aI81
aa(lp2278
I37
aI80
aI81
aa(lp2279
I37
aI175
aI81
aa(lp2280
I37
aI175
aI72
aa(lp2281
I37
aI174
aI48
aa(lp2282
I37
aI174
aI175
aa(lp2283
I37
aI44
aI49
aa(lp2284
I37
aI80
aI49
aa(lp2285
I37
aI49
aI60
aa(lp2286
I37
aI42
aI4
aa(lp2287
I37
aI42
aI1
aa(lp2288
I42
aI48
aI1
aa(lp2289
I37
aI42
aI48
aa(lp2290
I42
aI174
aI48
aa(lp2291
I37
aI42
aI174
aa(lp2292
I2
aI79
aI78
aa(lp2293
I2
aI31
aI78
aa(lp2294
I2
aI31
aI79
aa(lp2295
I2
aI42
aI79
aa(lp2296
I2
aI42
aI31
aa(lp2297
I2
aI51
aI78
aa(lp2298
I2
aI51
aI31
aa(lp2299
I2
aI42
aI51
aa(lp2300
I2
aI77
aI11
aa(lp2301
I2
aI78
aI11
aa(lp2302
I2
aI78
aI77
aa(lp2303
I2
aI79
aI77
aa(lp2304
I2
aI78
aI32
aa(lp2305
I2
aI51
aI32
aa(lp2306
I2
aI42
aI32
aa(lp2307
I2
aI48
aI11
aa(lp2308
I2
aI48
aI77
aa(lp2309
I2
aI1
aI11
aa(lp2310
I2
aI32
aI11
aa(lp2311
I2
aI32
aI1
aa(lp2312
I2
aI48
aI1
aa(lp2313
I2
aI42
aI1
aa(lp2314
I2
aI42
aI48
aa(lp2315
I2
aI79
aI48
aa(lp2316
I2
aI174
aI48
aa(lp2317
I2
aI174
aI79
aa(lp2318
I2
aI42
aI174
aa(lp2319
I2
aI50
aI77
aa(lp2320
I2
aI48
aI50
aa(lp2321
I2
aI79
aI50
aa(lp2322
I2
aI49
aI11
aa(lp2323
I2
aI1
aI49
aa(lp2324
I2
aI48
aI49
aa(lp2325
I16
aI152
aI8
aa(lp2326
I16
aI31
aI8
aa(lp2327
I16
aI31
aI152
aa(lp2328
I16
aI42
aI8
aa(lp2329
I16
aI42
aI31
aa(lp2330
I16
aI42
aI152
aa(lp2331
I16
aI72
aI143
aa(lp2332
I16
aI8
aI143
aa(lp2333
I16
aI8
aI72
aa(lp2334
I16
aI152
aI143
aa(lp2335
I16
aI152
aI72
aa(lp2336
I16
aI175
aI72
aa(lp2337
I16
aI152
aI175
aa(lp2338
I16
aI47
aI72
aa(lp2339
I16
aI47
aI8
aa(lp2340
I16
aI12
aI72
aa(lp2341
I16
aI12
aI47
aa(lp2342
I16
aI12
aI8
aa(lp2343
I16
aI8
aI32
aa(lp2344
I16
aI42
aI32
aa(lp2345
I16
aI37
aI72
aa(lp2346
I16
aI37
aI175
aa(lp2347
I16
aI174
aI175
aa(lp2348
I16
aI174
aI152
aa(lp2349
I16
aI42
aI174
aa(lp2350
I16
aI72
aI4
aa(lp2351
I16
aI26
aI4
aa(lp2352
I16
aI26
aI72
aa(lp2353
I16
aI12
aI4
aa(lp2354
I16
aI26
aI12
aa(lp2355
I16
aI37
aI4
aa(lp2356
I16
aI42
aI4
aa(lp2357
I16
aI37
aI42
aa(lp2358
I16
aI32
aI4
aa(lp2359
I16
aI12
aI32
aa(lp2360
I16
aI19
aI32
aa(lp2361
I16
aI19
aI8
aa(lp2362
I16
aI19
aI12
aa(lp2363
I16
aI37
aI174
aa.