(lp0
(lp1
I102
aI104
aI57
aa(lp2
I92
aI104
aI57
aa(lp3
I92
aI102
aI57
aa(lp4
I92
aI102
aI104
aa(lp5
I159
aI68
aI194
aa(lp6
I160
aI68
aI194
aa(lp7
I160
aI159
aI194
aa(lp8
I160
aI159
aI68
aa(lp9
I111
aI57
aI200
aa(lp10
I124
aI57
aI200
aa(lp11
I124
aI111
aI200
aa(lp12
I124
aI111
aI57
aa(lp13
I97
aI57
aI200
aa(lp14
I124
aI97
aI200
aa(lp15
I124
aI97
aI57
aa(lp16
I99
aI97
aI200
aa(lp17
I99
aI124
aI200
aa(lp18
I99
aI124
aI97
aa(lp19
I46
aI97
aI147
aa(lp20
I99
aI97
aI147
aa(lp21
I99
aI46
aI147
aa(lp22
I99
aI46
aI97
aa(lp23
I92
aI48
aI118
aa(lp24
I8
aI48
aI118
aa(lp25
I8
aI92
aI118
aa(lp26
I8
aI92
aI48
aa(lp27
I130
aI107
aI141
aa(lp28
I176
aI107
aI141
aa(lp29
I176
aI130
aI141
aa(lp30
I176
aI130
aI107
aa(lp31
I124
aI97
aI147
aa(lp32
I31
aI97
aI147
aa(lp33
I31
aI124
aI147
aa(lp34
I31
aI124
aI97
aa(lp35
I44
aI102
aI57
aa(lp36
I44
aI92
aI57
aa(lp37
I44
aI92
aI102
aa(lp38
I195
aI57
aI200
aa(lp39
I195
aI97
aI200
aa(lp40
I195
aI97
aI57
aa(lp41
I198
aI97
aI200
aa(lp42
I195
aI198
aI200
aa(lp43
I195
aI198
aI97
aa(lp44
I163
aI102
aI57
aa(lp45
I195
aI102
aI57
aa(lp46
I195
aI163
aI57
aa(lp47
I195
aI163
aI102
aa(lp48
I163
aI197
aI102
aa(lp49
I195
aI197
aI102
aa(lp50
I195
aI163
aI197
aa(lp51
I195
aI198
aI197
aa(lp52
I196
aI198
aI197
aa(lp53
I196
aI195
aI197
aa(lp54
I196
aI195
aI198
aa(lp55
I99
aI77
aI200
aa(lp56
I80
aI77
aI200
aa(lp57
I80
aI99
aI200
aa(lp58
I80
aI99
aI77
aa(lp59
I107
aI188
aI141
aa(lp60
I178
aI188
aI141
aa(lp61
I178
aI107
aI141
aa(lp62
I178
aI107
aI188
aa(lp63
I66
aI188
aI141
aa(lp64
I178
aI66
aI141
aa(lp65
I178
aI66
aI188
aa(lp66
I66
aI107
aI141
aa(lp67
I178
aI66
aI107
aa(lp68
I107
aI179
aI191
aa(lp69
I178
aI179
aI191
aa(lp70
I178
aI107
aI191
aa(lp71
I178
aI107
aI179
aa(lp72
I107
aI188
aI191
aa(lp73
I178
aI188
aI191
aa(lp74
I75
aI82
aI68
aa(lp75
I39
aI82
aI68
aa(lp76
I39
aI75
aI68
aa(lp77
I39
aI75
aI82
aa(lp78
I96
aI46
aI97
aa(lp79
I96
aI99
aI97
aa(lp80
I96
aI99
aI46
aa(lp81
I96
aI97
aI147
aa(lp82
I96
aI46
aI147
aa(lp83
I96
aI97
aI200
aa(lp84
I96
aI198
aI200
aa(lp85
I96
aI198
aI97
aa(lp86
I96
aI99
aI200
aa(lp87
I196
aI198
aI200
aa(lp88
I96
aI196
aI200
aa(lp89
I96
aI196
aI198
aa(lp90
I99
aI77
aI55
aa(lp91
I96
aI77
aI55
aa(lp92
I96
aI99
aI55
aa(lp93
I96
aI99
aI77
aa(lp94
I96
aI77
aI200
aa(lp95
I196
aI77
aI200
aa(lp96
I96
aI196
aI77
aa(lp97
I196
aI77
aI55
aa(lp98
I96
aI196
aI55
aa(lp99
I196
aI198
aI55
aa(lp100
I96
aI198
aI55
aa(lp101
I65
aI77
aI55
aa(lp102
I65
aI99
aI55
aa(lp103
I65
aI99
aI77
aa(lp104
I96
aI46
aI55
aa(lp105
I65
aI46
aI55
aa(lp106
I65
aI96
aI55
aa(lp107
I65
aI96
aI46
aa(lp108
I65
aI96
aI99
aa(lp109
I65
aI99
aI46
aa(lp110
I30
aI124
aI147
aa(lp111
I30
aI31
aI147
aa(lp112
I30
aI31
aI124
aa(lp113
I51
aI48
aI118
aa(lp114
I91
aI48
aI118
aa(lp115
I91
aI51
aI118
aa(lp116
I91
aI51
aI48
aa(lp117
I145
aI111
aI57
aa(lp118
I86
aI111
aI57
aa(lp119
I86
aI145
aI57
aa(lp120
I86
aI145
aI111
aa(lp121
I86
aI188
aI191
aa(lp122
I86
aI107
aI191
aa(lp123
I86
aI107
aI188
aa(lp124
I176
aI107
aI191
aa(lp125
I86
aI176
aI191
aa(lp126
I86
aI176
aI107
aa(lp127
I92
aI48
aI10
aa(lp128
I18
aI48
aI10
aa(lp129
I18
aI92
aI10
aa(lp130
I18
aI92
aI48
aa(lp131
I161
aI197
aI102
aa(lp132
I161
aI163
aI102
aa(lp133
I161
aI163
aI197
aa(lp134
I44
aI197
aI102
aa(lp135
I161
aI44
aI102
aa(lp136
I161
aI44
aI197
aa(lp137
I158
aI44
aI197
aa(lp138
I161
aI158
aI197
aa(lp139
I161
aI158
aI44
aa(lp140
I195
aI163
aI194
aa(lp141
I161
aI163
aI194
aa(lp142
I161
aI195
aI194
aa(lp143
I161
aI195
aI163
aa(lp144
I161
aI195
aI197
aa(lp145
I37
aI92
aI57
aa(lp146
I37
aI44
aI57
aa(lp147
I37
aI44
aI92
aa(lp148
I44
aI31
aI92
aa(lp149
I37
aI31
aI92
aa(lp150
I37
aI44
aI31
aa(lp151
I37
aI97
aI57
aa(lp152
I37
aI124
aI57
aa(lp153
I37
aI124
aI97
aa(lp154
I37
aI31
aI97
aa(lp155
I37
aI31
aI124
aa(lp156
I37
aI30
aI124
aa(lp157
I37
aI30
aI31
aa(lp158
I37
aI111
aI57
aa(lp159
I37
aI124
aI111
aa(lp160
I25
aI48
aI10
aa(lp161
I20
aI48
aI10
aa(lp162
I20
aI25
aI10
aa(lp163
I20
aI25
aI48
aa(lp164
I20
aI48
aI118
aa(lp165
I20
aI8
aI118
aa(lp166
I20
aI8
aI48
aa(lp167
I20
aI92
aI10
aa(lp168
I20
aI92
aI48
aa(lp169
I20
aI8
aI92
aa(lp170
I21
aI92
aI10
aa(lp171
I20
aI21
aI10
aa(lp172
I20
aI21
aI92
aa(lp173
I21
aI8
aI92
aa(lp174
I20
aI21
aI8
aa(lp175
I44
aI31
aI147
aa(lp176
I23
aI31
aI147
aa(lp177
I23
aI44
aI147
aa(lp178
I23
aI44
aI31
aa(lp179
I23
aI30
aI147
aa(lp180
I23
aI30
aI31
aa(lp181
I18
aI44
aI31
aa(lp182
I23
aI18
aI31
aa(lp183
I23
aI18
aI44
aa(lp184
I88
aI82
aI68
aa(lp185
I88
aI39
aI68
aa(lp186
I88
aI39
aI82
aa(lp187
I75
aI82
aI126
aa(lp188
I88
aI82
aI126
aa(lp189
I88
aI75
aI126
aa(lp190
I88
aI75
aI82
aa(lp191
I112
aI82
aI126
aa(lp192
I88
aI112
aI126
aa(lp193
I88
aI112
aI82
aa(lp194
I88
aI75
aI68
aa(lp195
I165
aI159
aI119
aa(lp196
I108
aI159
aI119
aa(lp197
I108
aI165
aI119
aa(lp198
I108
aI165
aI159
aa(lp199
I34
aI77
aI55
aa(lp200
I34
aI65
aI55
aa(lp201
I34
aI65
aI77
aa(lp202
I65
aI94
aI77
aa(lp203
I34
aI94
aI77
aa(lp204
I34
aI65
aI94
aa(lp205
I196
aI159
aI194
aa(lp206
I132
aI159
aI194
aa(lp207
I132
aI196
aI194
aa(lp208
I132
aI196
aI159
aa(lp209
I85
aI111
aI200
aa(lp210
I187
aI111
aI200
aa(lp211
I187
aI85
aI200
aa(lp212
I187
aI85
aI111
aa(lp213
I80
aI111
aI200
aa(lp214
I187
aI80
aI200
aa(lp215
I187
aI80
aI111
aa(lp216
I85
aI77
aI200
aa(lp217
I187
aI77
aI200
aa(lp218
I187
aI85
aI77
aa(lp219
I187
aI80
aI77
aa(lp220
I145
aI85
aI111
aa(lp221
I187
aI145
aI111
aa(lp222
I187
aI145
aI85
aa(lp223
I189
aI66
aI188
aa(lp224
I189
aI178
aI188
aa(lp225
I189
aI178
aI66
aa(lp226
I86
aI26
aI188
aa(lp227
I189
aI26
aI188
aa(lp228
I189
aI86
aI188
aa(lp229
I189
aI86
aI26
aa(lp230
I193
aI191
aI182
aa(lp231
I142
aI191
aI182
aa(lp232
I142
aI193
aI182
aa(lp233
I142
aI193
aI191
aa(lp234
I142
aI179
aI191
aa(lp235
I142
aI178
aI191
aa(lp236
I142
aI178
aI179
aa(lp237
I163
aI75
aI114
aa(lp238
I16
aI75
aI114
aa(lp239
I16
aI163
aI114
aa(lp240
I16
aI163
aI75
aa(lp241
I163
aI102
aI104
aa(lp242
I16
aI102
aI104
aa(lp243
I16
aI163
aI104
aa(lp244
I16
aI163
aI102
aa(lp245
I38
aI15
aI104
aa(lp246
I16
aI15
aI104
aa(lp247
I16
aI38
aI104
aa(lp248
I16
aI38
aI15
aa(lp249
I38
aI90
aI15
aa(lp250
I16
aI90
aI15
aa(lp251
I16
aI38
aI90
aa(lp252
I90
aI114
aI104
aa(lp253
I16
aI114
aI104
aa(lp254
I16
aI90
aI104
aa(lp255
I16
aI90
aI114
aa(lp256
I163
aI114
aI104
aa(lp257
I21
aI15
aI22
aa(lp258
I7
aI15
aI22
aa(lp259
I7
aI21
aI22
aa(lp260
I7
aI21
aI15
aa(lp261
I5
aI15
aI22
aa(lp262
I7
aI5
aI22
aa(lp263
I7
aI5
aI15
aa(lp264
I28
aI75
aI82
aa(lp265
I28
aI39
aI82
aa(lp266
I28
aI39
aI75
aa(lp267
I75
aI114
aI126
aa(lp268
I28
aI114
aI126
aa(lp269
I28
aI75
aI126
aa(lp270
I28
aI75
aI114
aa(lp271
I28
aI16
aI114
aa(lp272
I28
aI16
aI75
aa(lp273
I28
aI90
aI114
aa(lp274
I28
aI16
aI90
aa(lp275
I28
aI163
aI75
aa(lp276
I28
aI16
aI163
aa(lp277
I140
aI107
aI141
aa(lp278
I140
aI130
aI141
aa(lp279
I140
aI130
aI107
aa(lp280
I140
aI176
aI141
aa(lp281
I140
aI176
aI130
aa(lp282
I176
aI138
aI85
aa(lp283
I152
aI138
aI85
aa(lp284
I152
aI176
aI85
aa(lp285
I152
aI176
aI138
aa(lp286
I138
aI85
aI77
aa(lp287
I152
aI85
aI77
aa(lp288
I152
aI138
aI77
aa(lp289
I137
aI138
aI77
aa(lp290
I152
aI137
aI77
aa(lp291
I152
aI137
aI138
aa(lp292
I176
aI130
aI138
aa(lp293
I152
aI130
aI138
aa(lp294
I152
aI176
aI130
aa(lp295
I27
aI54
aI25
aa(lp296
I19
aI54
aI25
aa(lp297
I19
aI27
aI25
aa(lp298
I19
aI27
aI54
aa(lp299
I123
aI124
aI147
aa(lp300
I123
aI30
aI147
aa(lp301
I123
aI30
aI124
aa(lp302
I123
aI23
aI147
aa(lp303
I123
aI23
aI30
aa(lp304
I23
aI30
aI54
aa(lp305
I123
aI30
aI54
aa(lp306
I123
aI23
aI54
aa(lp307
I123
aI97
aI147
aa(lp308
I123
aI124
aI97
aa(lp309
I123
aI99
aI147
aa(lp310
I123
aI99
aI97
aa(lp311
I123
aI99
aI124
aa(lp312
I123
aI46
aI147
aa(lp313
I123
aI99
aI46
aa(lp314
I123
aI65
aI46
aa(lp315
I123
aI65
aI99
aa(lp316
I123
aI124
aI200
aa(lp317
I123
aI99
aI200
aa(lp318
I80
aI124
aI200
aa(lp319
I123
aI80
aI200
aa(lp320
I123
aI80
aI124
aa(lp321
I123
aI80
aI99
aa(lp322
I120
aI8
aI92
aa(lp323
I120
aI21
aI92
aa(lp324
I120
aI21
aI8
aa(lp325
I120
aI92
aI118
aa(lp326
I120
aI8
aI118
aa(lp327
I120
aI104
aI57
aa(lp328
I120
aI92
aI57
aa(lp329
I120
aI92
aI104
aa(lp330
I83
aI117
aI169
aa(lp331
I171
aI117
aI169
aa(lp332
I171
aI83
aI169
aa(lp333
I171
aI83
aI117
aa(lp334
I83
aI169
aI165
aa(lp335
I171
aI169
aI165
aa(lp336
I171
aI83
aI165
aa(lp337
I83
aI172
aI134
aa(lp338
I171
aI172
aI134
aa(lp339
I171
aI83
aI134
aa(lp340
I171
aI83
aI172
aa(lp341
I35
aI8
aI118
aa(lp342
I35
aI120
aI118
aa(lp343
I35
aI120
aI8
aa(lp344
I35
aI117
aI169
aa(lp345
I35
aI171
aI169
aa(lp346
I35
aI171
aI117
aa(lp347
I117
aI169
aI106
aa(lp348
I35
aI169
aI106
aa(lp349
I35
aI117
aI106
aa(lp350
I174
aI38
aI126
aa(lp351
I41
aI38
aI126
aa(lp352
I41
aI174
aI126
aa(lp353
I41
aI174
aI38
aa(lp354
I41
aI15
aI22
aa(lp355
I41
aI5
aI22
aa(lp356
I41
aI5
aI15
aa(lp357
I41
aI82
aI126
aa(lp358
I41
aI112
aI126
aa(lp359
I41
aI112
aI82
aa(lp360
I174
aI112
aI126
aa(lp361
I41
aI174
aI112
aa(lp362
I174
aI112
aI165
aa(lp363
I41
aI112
aI165
aa(lp364
I41
aI174
aI165
aa(lp365
I86
aI145
aI26
aa(lp366
I109
aI145
aI26
aa(lp367
I109
aI86
aI26
aa(lp368
I109
aI86
aI145
aa(lp369
I109
aI188
aI141
aa(lp370
I109
aI107
aI141
aa(lp371
I109
aI107
aI188
aa(lp372
I109
aI176
aI141
aa(lp373
I109
aI176
aI107
aa(lp374
I109
aI86
aI188
aa(lp375
I109
aI86
aI107
aa(lp376
I109
aI86
aI176
aa(lp377
I86
aI176
aI85
aa(lp378
I109
aI176
aI85
aa(lp379
I109
aI86
aI85
aa(lp380
I86
aI145
aI85
aa(lp381
I109
aI145
aI85
aa(lp382
I98
aI111
aI200
aa(lp383
I98
aI124
aI200
aa(lp384
I98
aI124
aI111
aa(lp385
I98
aI80
aI200
aa(lp386
I98
aI80
aI111
aa(lp387
I98
aI80
aI124
aa(lp388
I98
aI37
aI111
aa(lp389
I98
aI37
aI124
aa(lp390
I98
aI30
aI124
aa(lp391
I98
aI37
aI30
aa(lp392
I98
aI187
aI111
aa(lp393
I98
aI187
aI80
aa(lp394
I98
aI123
aI124
aa(lp395
I98
aI123
aI80
aa(lp396
I98
aI123
aI30
aa(lp397
I98
aI145
aI111
aa(lp398
I98
aI187
aI145
aa(lp399
I98
aI111
aI57
aa(lp400
I98
aI145
aI57
aa(lp401
I98
aI37
aI57
aa(lp402
I1
aI18
aI31
aa(lp403
I1
aI23
aI31
aa(lp404
I1
aI23
aI18
aa(lp405
I1
aI31
aI92
aa(lp406
I1
aI44
aI92
aa(lp407
I1
aI44
aI31
aa(lp408
I18
aI44
aI92
aa(lp409
I1
aI18
aI92
aa(lp410
I1
aI18
aI44
aa(lp411
I181
aI178
aI179
aa(lp412
I181
aI142
aI179
aa(lp413
I181
aI142
aI178
aa(lp414
I49
aI92
aI10
aa(lp415
I49
aI21
aI10
aa(lp416
I49
aI21
aI92
aa(lp417
I49
aI18
aI10
aa(lp418
I49
aI18
aI92
aa(lp419
I49
aI102
aI104
aa(lp420
I49
aI92
aI104
aa(lp421
I49
aI92
aI102
aa(lp422
I49
aI44
aI102
aa(lp423
I49
aI44
aI92
aa(lp424
I49
aI18
aI44
aa(lp425
I110
aI158
aI197
aa(lp426
I110
aI161
aI197
aa(lp427
I110
aI161
aI158
aa(lp428
I110
aI198
aI197
aa(lp429
I110
aI196
aI197
aa(lp430
I110
aI196
aI198
aa(lp431
I110
aI159
aI194
aa(lp432
I110
aI160
aI194
aa(lp433
I110
aI160
aI159
aa(lp434
I161
aI160
aI194
aa(lp435
I110
aI161
aI194
aa(lp436
I110
aI161
aI160
aa(lp437
I110
aI196
aI194
aa(lp438
I110
aI196
aI159
aa(lp439
I110
aI195
aI197
aa(lp440
I110
aI196
aI195
aa(lp441
I110
aI161
aI195
aa(lp442
I110
aI132
aI159
aa(lp443
I110
aI132
aI196
aa(lp444
I196
aI195
aI194
aa(lp445
I110
aI195
aI194
aa(lp446
I158
aI44
aI147
aa(lp447
I95
aI44
aI147
aa(lp448
I95
aI158
aI147
aa(lp449
I95
aI158
aI44
aa(lp450
I95
aI44
aI197
aa(lp451
I95
aI158
aI197
aa(lp452
I158
aI198
aI197
aa(lp453
I95
aI198
aI197
aa(lp454
I95
aI158
aI198
aa(lp455
I95
aI97
aI147
aa(lp456
I95
aI31
aI147
aa(lp457
I95
aI31
aI97
aa(lp458
I95
aI44
aI31
aa(lp459
I95
aI96
aI147
aa(lp460
I95
aI96
aI97
aa(lp461
I95
aI198
aI97
aa(lp462
I95
aI96
aI198
aa(lp463
I95
aI195
aI97
aa(lp464
I95
aI195
aI198
aa(lp465
I95
aI195
aI197
aa(lp466
I95
aI37
aI97
aa(lp467
I95
aI37
aI31
aa(lp468
I95
aI37
aI44
aa(lp469
I95
aI97
aI57
aa(lp470
I95
aI195
aI57
aa(lp471
I95
aI37
aI57
aa(lp472
I95
aI44
aI57
aa(lp473
I95
aI102
aI57
aa(lp474
I95
aI44
aI102
aa(lp475
I95
aI197
aI102
aa(lp476
I95
aI46
aI147
aa(lp477
I95
aI96
aI46
aa(lp478
I158
aI46
aI147
aa(lp479
I95
aI158
aI46
aa(lp480
I158
aI96
aI46
aa(lp481
I95
aI158
aI96
aa(lp482
I95
aI195
aI102
aa(lp483
I148
aI44
aI102
aa(lp484
I148
aI161
aI102
aa(lp485
I148
aI161
aI44
aa(lp486
I18
aI44
aI10
aa(lp487
I148
aI44
aI10
aa(lp488
I148
aI18
aI10
aa(lp489
I148
aI18
aI44
aa(lp490
I148
aI49
aI102
aa(lp491
I148
aI49
aI44
aa(lp492
I148
aI49
aI18
aa(lp493
I148
aI158
aI44
aa(lp494
I148
aI161
aI158
aa(lp495
I60
aI8
aI118
aa(lp496
I60
aI20
aI118
aa(lp497
I60
aI20
aI8
aa(lp498
I60
aI35
aI118
aa(lp499
I60
aI35
aI8
aa(lp500
I60
aI48
aI118
aa(lp501
I60
aI51
aI118
aa(lp502
I60
aI51
aI48
aa(lp503
I60
aI20
aI48
aa(lp504
I20
aI51
aI48
aa(lp505
I60
aI20
aI51
aa(lp506
I60
aI117
aI106
aa(lp507
I60
aI35
aI106
aa(lp508
I60
aI35
aI117
aa(lp509
I20
aI73
aI106
aa(lp510
I60
aI73
aI106
aa(lp511
I60
aI20
aI106
aa(lp512
I60
aI20
aI73
aa(lp513
I20
aI73
aI8
aa(lp514
I60
aI73
aI8
aa(lp515
I35
aI73
aI106
aa(lp516
I60
aI35
aI73
aa(lp517
I35
aI73
aI8
aa(lp518
I23
aI54
aI25
aa(lp519
I12
aI54
aI25
aa(lp520
I12
aI23
aI25
aa(lp521
I12
aI23
aI54
aa(lp522
I12
aI44
aI10
aa(lp523
I12
aI18
aI10
aa(lp524
I12
aI18
aI44
aa(lp525
I23
aI18
aI10
aa(lp526
I12
aI23
aI10
aa(lp527
I12
aI23
aI18
aa(lp528
I12
aI23
aI44
aa(lp529
I79
aI73
aI106
aa(lp530
I150
aI73
aI106
aa(lp531
I150
aI79
aI106
aa(lp532
I150
aI79
aI73
aa(lp533
I150
aI169
aI165
aa(lp534
I150
aI171
aI165
aa(lp535
I150
aI171
aI169
aa(lp536
I150
aI112
aI165
aa(lp537
I150
aI41
aI165
aa(lp538
I150
aI41
aI112
aa(lp539
I150
aI169
aI106
aa(lp540
I121
aI169
aI106
aa(lp541
I121
aI150
aI106
aa(lp542
I121
aI150
aI169
aa(lp543
I164
aI165
aI159
aa(lp544
I164
aI108
aI159
aa(lp545
I164
aI108
aI165
aa(lp546
I164
aI112
aI165
aa(lp547
I164
aI150
aI165
aa(lp548
I164
aI150
aI112
aa(lp549
I164
aI159
aI68
aa(lp550
I164
aI160
aI68
aa(lp551
I164
aI160
aI159
aa(lp552
I70
aI160
aI68
aa(lp553
I164
aI70
aI68
aa(lp554
I164
aI70
aI160
aa(lp555
I156
aI155
aI119
aa(lp556
I153
aI155
aI119
aa(lp557
I153
aI156
aI119
aa(lp558
I153
aI156
aI155
aa(lp559
I156
aI108
aI119
aa(lp560
I153
aI108
aI119
aa(lp561
I153
aI156
aI108
aa(lp562
I156
aI108
aI155
aa(lp563
I153
aI108
aI155
aa(lp564
I108
aI135
aI159
aa(lp565
I116
aI135
aI159
aa(lp566
I116
aI108
aI159
aa(lp567
I116
aI108
aI135
aa(lp568
I132
aI135
aI159
aa(lp569
I116
aI132
aI159
aa(lp570
I116
aI132
aI135
aa(lp571
I116
aI159
aI119
aa(lp572
I116
aI108
aI119
aa(lp573
I153
aI108
aI135
aa(lp574
I116
aI153
aI135
aa(lp575
I116
aI153
aI108
aa(lp576
I153
aI137
aI119
aa(lp577
I116
aI137
aI119
aa(lp578
I116
aI153
aI119
aa(lp579
I116
aI153
aI137
aa(lp580
I137
aI138
aI119
aa(lp581
I116
aI138
aI119
aa(lp582
I116
aI137
aI138
aa(lp583
I153
aI34
aI137
aa(lp584
I116
aI34
aI137
aa(lp585
I116
aI153
aI34
aa(lp586
I116
aI138
aI77
aa(lp587
I116
aI137
aI77
aa(lp588
I132
aI138
aI77
aa(lp589
I116
aI132
aI77
aa(lp590
I116
aI132
aI138
aa(lp591
I132
aI34
aI55
aa(lp592
I116
aI34
aI55
aa(lp593
I116
aI132
aI55
aa(lp594
I116
aI132
aI34
aa(lp595
I132
aI77
aI55
aa(lp596
I116
aI77
aI55
aa(lp597
I116
aI34
aI77
aa(lp598
I34
aI137
aI77
aa(lp599
I127
aI135
aI159
aa(lp600
I127
aI132
aI159
aa(lp601
I127
aI132
aI135
aa(lp602
I127
aI34
aI55
aa(lp603
I127
aI132
aI55
aa(lp604
I127
aI132
aI34
aa(lp605
I116
aI34
aI135
aa(lp606
I127
aI34
aI135
aa(lp607
I127
aI116
aI135
aa(lp608
I127
aI116
aI34
aa(lp609
I127
aI116
aI132
aa(lp610
I127
aI110
aI159
aa(lp611
I127
aI110
aI132
aa(lp612
I78
aI94
aI77
aa(lp613
I78
aI65
aI77
aa(lp614
I78
aI65
aI94
aa(lp615
I78
aI85
aI77
aa(lp616
I78
aI187
aI77
aa(lp617
I78
aI187
aI85
aa(lp618
I78
aI152
aI77
aa(lp619
I78
aI152
aI85
aa(lp620
I19
aI54
aI94
aa(lp621
I78
aI54
aI94
aa(lp622
I78
aI19
aI94
aa(lp623
I78
aI19
aI54
aa(lp624
I40
aI145
aI26
aa(lp625
I40
aI109
aI26
aa(lp626
I40
aI109
aI145
aa(lp627
I40
aI26
aI188
aa(lp628
I40
aI189
aI188
aa(lp629
I40
aI189
aI26
aa(lp630
I40
aI86
aI188
aa(lp631
I40
aI86
aI26
aa(lp632
I40
aI109
aI188
aa(lp633
I40
aI109
aI86
aa(lp634
I40
aI188
aI141
aa(lp635
I40
aI109
aI141
aa(lp636
I40
aI66
aI188
aa(lp637
I40
aI189
aI66
aa(lp638
I40
aI66
aI141
aa(lp639
I27
aI66
aI141
aa(lp640
I40
aI27
aI141
aa(lp641
I40
aI27
aI66
aa(lp642
I189
aI199
aI26
aa(lp643
I190
aI199
aI26
aa(lp644
I190
aI189
aI26
aa(lp645
I190
aI189
aI199
aa(lp646
I190
aI86
aI26
aa(lp647
I190
aI189
aI86
aa(lp648
I199
aI26
aI57
aa(lp649
I190
aI26
aI57
aa(lp650
I190
aI199
aI57
aa(lp651
I145
aI26
aI57
aa(lp652
I190
aI145
aI57
aa(lp653
I190
aI145
aI26
aa(lp654
I190
aI86
aI57
aa(lp655
I190
aI86
aI145
aa(lp656
I199
aI146
aI57
aa(lp657
I190
aI146
aI57
aa(lp658
I190
aI199
aI146
aa(lp659
I189
aI199
aI193
aa(lp660
I190
aI199
aI193
aa(lp661
I190
aI189
aI193
aa(lp662
I190
aI188
aI191
aa(lp663
I190
aI86
aI191
aa(lp664
I190
aI86
aI188
aa(lp665
I189
aI188
aI191
aa(lp666
I190
aI189
aI191
aa(lp667
I190
aI189
aI188
aa(lp668
I199
aI193
aI146
aa(lp669
I190
aI193
aI146
aa(lp670
I177
aI107
aI179
aa(lp671
I177
aI178
aI179
aa(lp672
I177
aI178
aI107
aa(lp673
I178
aI66
aI179
aa(lp674
I177
aI66
aI179
aa(lp675
I177
aI178
aI66
aa(lp676
I177
aI66
aI107
aa(lp677
I130
aI107
aI179
aa(lp678
I177
aI130
aI179
aa(lp679
I177
aI130
aI107
aa(lp680
I151
aI130
aI179
aa(lp681
I177
aI151
aI179
aa(lp682
I177
aI151
aI130
aa(lp683
I177
aI140
aI107
aa(lp684
I177
aI140
aI130
aa(lp685
I177
aI107
aI141
aa(lp686
I177
aI66
aI141
aa(lp687
I177
aI140
aI141
aa(lp688
I140
aI66
aI141
aa(lp689
I177
aI140
aI66
aa(lp690
I151
aI134
aI182
aa(lp691
I170
aI134
aI182
aa(lp692
I170
aI151
aI182
aa(lp693
I170
aI151
aI134
aa(lp694
I172
aI134
aI182
aa(lp695
I170
aI172
aI182
aa(lp696
I170
aI172
aI134
aa(lp697
I170
aI83
aI134
aa(lp698
I170
aI83
aI172
aa(lp699
I170
aI117
aI169
aa(lp700
I170
aI83
aI169
aa(lp701
I170
aI83
aI117
aa(lp702
I171
aI117
aI172
aa(lp703
I170
aI117
aI172
aa(lp704
I170
aI171
aI172
aa(lp705
I170
aI171
aI117
aa(lp706
I170
aI171
aI83
aa(lp707
I76
aI169
aI165
aa(lp708
I76
aI83
aI165
aa(lp709
I76
aI83
aI169
aa(lp710
I121
aI151
aI169
aa(lp711
I76
aI151
aI169
aa(lp712
I76
aI121
aI169
aa(lp713
I76
aI121
aI151
aa(lp714
I151
aI165
aI134
aa(lp715
I76
aI165
aI134
aa(lp716
I76
aI151
aI134
aa(lp717
I76
aI151
aI165
aa(lp718
I76
aI150
aI165
aa(lp719
I76
aI150
aI169
aa(lp720
I121
aI150
aI165
aa(lp721
I76
aI121
aI165
aa(lp722
I76
aI121
aI150
aa(lp723
I151
aI165
aI119
aa(lp724
I76
aI165
aI119
aa(lp725
I76
aI151
aI119
aa(lp726
I14
aI5
aI15
aa(lp727
I14
aI41
aI15
aa(lp728
I14
aI41
aI5
aa(lp729
I14
aI7
aI15
aa(lp730
I14
aI7
aI5
aa(lp731
I7
aI16
aI15
aa(lp732
I14
aI16
aI15
aa(lp733
I14
aI7
aI16
aa(lp734
I33
aI39
aI75
aa(lp735
I33
aI28
aI75
aa(lp736
I33
aI28
aI39
aa(lp737
I33
aI75
aI68
aa(lp738
I33
aI39
aI68
aa(lp739
I75
aI68
aI194
aa(lp740
I33
aI68
aI194
aa(lp741
I33
aI75
aI194
aa(lp742
I163
aI75
aI194
aa(lp743
I33
aI163
aI194
aa(lp744
I33
aI163
aI75
aa(lp745
I151
aI130
aI138
aa(lp746
I129
aI130
aI138
aa(lp747
I129
aI151
aI138
aa(lp748
I129
aI151
aI130
aa(lp749
I129
aI177
aI130
aa(lp750
I129
aI177
aI151
aa(lp751
I129
aI140
aI130
aa(lp752
I129
aI177
aI140
aa(lp753
I151
aI138
aI119
aa(lp754
I129
aI138
aI119
aa(lp755
I129
aI151
aI119
aa(lp756
I129
aI140
aI66
aa(lp757
I129
aI177
aI66
aa(lp758
I19
aI140
aI71
aa(lp759
I50
aI140
aI71
aa(lp760
I50
aI19
aI71
aa(lp761
I50
aI19
aI140
aa(lp762
I27
aI25
aI48
aa(lp763
I50
aI25
aI48
aa(lp764
I50
aI27
aI48
aa(lp765
I50
aI27
aI25
aa(lp766
I50
aI66
aI141
aa(lp767
I50
aI27
aI141
aa(lp768
I50
aI27
aI66
aa(lp769
I50
aI140
aI141
aa(lp770
I50
aI140
aI66
aa(lp771
I19
aI27
aI141
aa(lp772
I50
aI19
aI141
aa(lp773
I50
aI19
aI27
aa(lp774
I19
aI140
aI141
aa(lp775
I62
aI23
aI54
aa(lp776
I62
aI123
aI54
aa(lp777
I62
aI123
aI23
aa(lp778
I123
aI54
aI94
aa(lp779
I62
aI54
aI94
aa(lp780
I62
aI123
aI94
aa(lp781
I62
aI46
aI147
aa(lp782
I62
aI123
aI147
aa(lp783
I62
aI123
aI46
aa(lp784
I62
aI23
aI147
aa(lp785
I62
aI65
aI46
aa(lp786
I62
aI123
aI65
aa(lp787
I123
aI65
aI94
aa(lp788
I62
aI65
aI94
aa(lp789
I62
aI158
aI147
aa(lp790
I62
aI158
aI46
aa(lp791
I158
aI89
aI46
aa(lp792
I62
aI89
aI46
aa(lp793
I62
aI158
aI89
aa(lp794
I63
aI92
aI104
aa(lp795
I63
aI120
aI104
aa(lp796
I63
aI120
aI92
aa(lp797
I63
aI21
aI92
aa(lp798
I63
aI120
aI21
aa(lp799
I63
aI49
aI104
aa(lp800
I63
aI49
aI92
aa(lp801
I63
aI49
aI21
aa(lp802
I49
aI7
aI21
aa(lp803
I63
aI7
aI21
aa(lp804
I63
aI49
aI7
aa(lp805
I63
aI21
aI15
aa(lp806
I63
aI7
aI15
aa(lp807
I63
aI15
aI104
aa(lp808
I63
aI38
aI104
aa(lp809
I63
aI38
aI15
aa(lp810
I63
aI15
aI22
aa(lp811
I63
aI21
aI22
aa(lp812
I63
aI16
aI104
aa(lp813
I63
aI16
aI15
aa(lp814
I63
aI7
aI16
aa(lp815
I63
aI102
aI104
aa(lp816
I63
aI16
aI102
aa(lp817
I63
aI49
aI102
aa(lp818
I115
aI90
aI104
aa(lp819
I115
aI16
aI104
aa(lp820
I115
aI16
aI90
aa(lp821
I115
aI38
aI104
aa(lp822
I115
aI16
aI38
aa(lp823
I115
aI38
aI90
aa(lp824
I115
aI63
aI104
aa(lp825
I115
aI63
aI38
aa(lp826
I115
aI120
aI104
aa(lp827
I115
aI63
aI120
aa(lp828
I63
aI120
aI38
aa(lp829
I115
aI120
aI38
aa(lp830
I90
aI114
aI126
aa(lp831
I115
aI114
aI126
aa(lp832
I115
aI90
aI126
aa(lp833
I115
aI90
aI114
aa(lp834
I38
aI90
aI126
aa(lp835
I115
aI38
aI126
aa(lp836
I115
aI174
aI126
aa(lp837
I115
aI174
aI38
aa(lp838
I115
aI114
aI104
aa(lp839
I173
aI83
aI134
aa(lp840
I173
aI171
aI134
aa(lp841
I173
aI171
aI83
aa(lp842
I83
aI165
aI134
aa(lp843
I173
aI165
aI134
aa(lp844
I173
aI83
aI165
aa(lp845
I174
aI172
aI134
aa(lp846
I173
aI172
aI134
aa(lp847
I173
aI174
aI134
aa(lp848
I173
aI174
aI172
aa(lp849
I173
aI171
aI172
aa(lp850
I171
aI174
aI172
aa(lp851
I173
aI171
aI174
aa(lp852
I171
aI174
aI165
aa(lp853
I173
aI174
aI165
aa(lp854
I173
aI171
aI165
aa(lp855
I173
aI112
aI165
aa(lp856
I173
aI174
aI112
aa(lp857
I173
aI112
aI126
aa(lp858
I173
aI174
aI126
aa(lp859
I136
aI174
aI38
aa(lp860
I136
aI41
aI38
aa(lp861
I136
aI41
aI174
aa(lp862
I136
aI115
aI38
aa(lp863
I136
aI115
aI174
aa(lp864
I115
aI174
aI172
aa(lp865
I136
aI174
aI172
aa(lp866
I136
aI115
aI172
aa(lp867
I136
aI171
aI172
aa(lp868
I136
aI171
aI174
aa(lp869
I136
aI117
aI172
aa(lp870
I136
aI171
aI117
aa(lp871
I35
aI117
aI172
aa(lp872
I136
aI35
aI172
aa(lp873
I136
aI35
aI117
aa(lp874
I136
aI35
aI171
aa(lp875
I73
aI8
aI22
aa(lp876
I105
aI8
aI22
aa(lp877
I105
aI73
aI22
aa(lp878
I105
aI73
aI8
aa(lp879
I105
aI35
aI8
aa(lp880
I105
aI35
aI73
aa(lp881
I105
aI79
aI73
aa(lp882
I105
aI150
aI73
aa(lp883
I105
aI150
aI79
aa(lp884
I105
aI73
aI106
aa(lp885
I105
aI35
aI106
aa(lp886
I105
aI150
aI106
aa(lp887
I105
aI169
aI106
aa(lp888
I105
aI35
aI169
aa(lp889
I105
aI150
aI169
aa(lp890
I105
aI171
aI169
aa(lp891
I105
aI35
aI171
aa(lp892
I105
aI150
aI171
aa(lp893
I69
aI145
aI26
aa(lp894
I69
aI40
aI26
aa(lp895
I69
aI40
aI145
aa(lp896
I69
aI187
aI145
aa(lp897
I69
aI98
aI145
aa(lp898
I69
aI98
aI187
aa(lp899
I69
aI145
aI85
aa(lp900
I69
aI187
aI85
aa(lp901
I69
aI109
aI145
aa(lp902
I69
aI40
aI109
aa(lp903
I9
aI54
aI25
aa(lp904
I9
aI27
aI25
aa(lp905
I9
aI27
aI54
aa(lp906
I69
aI27
aI54
aa(lp907
I9
aI69
aI54
aa(lp908
I9
aI69
aI27
aa(lp909
I69
aI30
aI54
aa(lp910
I9
aI30
aI54
aa(lp911
I9
aI69
aI30
aa(lp912
I9
aI40
aI26
aa(lp913
I9
aI69
aI26
aa(lp914
I9
aI69
aI40
aa(lp915
I69
aI40
aI27
aa(lp916
I9
aI40
aI27
aa(lp917
I9
aI37
aI30
aa(lp918
I9
aI98
aI30
aa(lp919
I9
aI98
aI37
aa(lp920
I69
aI98
aI30
aa(lp921
I9
aI69
aI98
aa(lp922
I9
aI145
aI26
aa(lp923
I9
aI69
aI145
aa(lp924
I9
aI145
aI57
aa(lp925
I9
aI98
aI57
aa(lp926
I9
aI98
aI145
aa(lp927
I4
aI25
aI48
aa(lp928
I4
aI27
aI48
aa(lp929
I4
aI27
aI25
aa(lp930
I4
aI92
aI48
aa(lp931
I4
aI18
aI48
aa(lp932
I4
aI18
aI92
aa(lp933
I4
aI1
aI92
aa(lp934
I4
aI1
aI18
aa(lp935
I4
aI50
aI48
aa(lp936
I4
aI50
aI27
aa(lp937
I4
aI48
aI118
aa(lp938
I4
aI92
aI118
aa(lp939
I4
aI91
aI118
aa(lp940
I4
aI91
aI48
aa(lp941
I91
aI92
aI118
aa(lp942
I4
aI91
aI92
aa(lp943
I6
aI30
aI31
aa(lp944
I6
aI23
aI31
aa(lp945
I6
aI23
aI30
aa(lp946
I1
aI30
aI31
aa(lp947
I6
aI1
aI31
aa(lp948
I6
aI1
aI30
aa(lp949
I6
aI1
aI23
aa(lp950
I6
aI54
aI25
aa(lp951
I6
aI23
aI25
aa(lp952
I6
aI23
aI54
aa(lp953
I6
aI30
aI54
aa(lp954
I9
aI1
aI30
aa(lp955
I6
aI9
aI30
aa(lp956
I6
aI9
aI1
aa(lp957
I6
aI23
aI18
aa(lp958
I6
aI1
aI18
aa(lp959
I6
aI9
aI25
aa(lp960
I6
aI9
aI54
aa(lp961
I4
aI9
aI1
aa(lp962
I6
aI4
aI1
aa(lp963
I6
aI4
aI9
aa(lp964
I6
aI18
aI10
aa(lp965
I6
aI23
aI10
aa(lp966
I6
aI4
aI18
aa(lp967
I6
aI27
aI25
aa(lp968
I6
aI9
aI27
aa(lp969
I6
aI4
aI25
aa(lp970
I6
aI4
aI27
aa(lp971
I4
aI9
aI27
aa(lp972
I12
aI25
aI10
aa(lp973
I6
aI25
aI10
aa(lp974
I6
aI12
aI10
aa(lp975
I6
aI12
aI25
aa(lp976
I6
aI12
aI23
aa(lp977
I6
aI48
aI10
aa(lp978
I6
aI25
aI48
aa(lp979
I6
aI4
aI48
aa(lp980
I6
aI18
aI48
aa(lp981
I115
aI120
aI146
aa(lp982
I185
aI120
aI146
aa(lp983
I185
aI115
aI146
aa(lp984
I185
aI115
aI120
aa(lp985
I136
aI120
aI118
aa(lp986
I185
aI120
aI118
aa(lp987
I185
aI136
aI118
aa(lp988
I185
aI136
aI120
aa(lp989
I185
aI92
aI118
aa(lp990
I185
aI91
aI118
aa(lp991
I185
aI91
aI92
aa(lp992
I185
aI120
aI92
aa(lp993
I136
aI115
aI120
aa(lp994
I185
aI136
aI115
aa(lp995
I186
aI51
aI118
aa(lp996
I186
aI91
aI118
aa(lp997
I186
aI91
aI51
aa(lp998
I186
aI51
aI48
aa(lp999
I186
aI91
aI48
aa(lp1000
I50
aI51
aI48
aa(lp1001
I186
aI50
aI48
aa(lp1002
I186
aI50
aI51
aa(lp1003
I50
aI51
aI66
aa(lp1004
I186
aI51
aI66
aa(lp1005
I186
aI50
aI66
aa(lp1006
I186
aI178
aI66
aa(lp1007
I186
aI189
aI66
aa(lp1008
I186
aI189
aI178
aa(lp1009
I181
aI178
aI66
aa(lp1010
I186
aI181
aI66
aa(lp1011
I186
aI181
aI178
aa(lp1012
I186
aI4
aI48
aa(lp1013
I186
aI4
aI91
aa(lp1014
I186
aI4
aI50
aa(lp1015
I180
aI51
aI66
aa(lp1016
I180
aI186
aI66
aa(lp1017
I180
aI186
aI51
aa(lp1018
I180
aI181
aI66
aa(lp1019
I180
aI186
aI181
aa(lp1020
I180
aI66
aI179
aa(lp1021
I180
aI177
aI179
aa(lp1022
I180
aI177
aI66
aa(lp1023
I180
aI178
aI179
aa(lp1024
I180
aI178
aI66
aa(lp1025
I180
aI181
aI179
aa(lp1026
I180
aI181
aI178
aa(lp1027
I142
aI179
aI182
aa(lp1028
I180
aI179
aI182
aa(lp1029
I180
aI142
aI182
aa(lp1030
I180
aI142
aI179
aa(lp1031
I181
aI142
aI182
aa(lp1032
I180
aI181
aI182
aa(lp1033
I180
aI181
aI142
aa(lp1034
I192
aI193
aI191
aa(lp1035
I192
aI142
aI191
aa(lp1036
I192
aI142
aI193
aa(lp1037
I192
aI178
aI191
aa(lp1038
I192
aI142
aI178
aa(lp1039
I192
aI181
aI178
aa(lp1040
I192
aI181
aI142
aa(lp1041
I190
aI193
aI191
aa(lp1042
I192
aI190
aI191
aa(lp1043
I192
aI190
aI193
aa(lp1044
I192
aI189
aI191
aa(lp1045
I192
aI190
aI189
aa(lp1046
I192
aI189
aI193
aa(lp1047
I192
aI188
aI191
aa(lp1048
I192
aI178
aI188
aa(lp1049
I192
aI189
aI188
aa(lp1050
I192
aI189
aI178
aa(lp1051
I192
aI186
aI178
aa(lp1052
I192
aI186
aI189
aa(lp1053
I192
aI186
aI181
aa(lp1054
I186
aI189
aI91
aa(lp1055
I192
aI189
aI91
aa(lp1056
I192
aI186
aI91
aa(lp1057
I192
aI199
aI193
aa(lp1058
I192
aI189
aI199
aa(lp1059
I189
aI91
aI199
aa(lp1060
I192
aI91
aI199
aa(lp1061
I192
aI193
aI146
aa(lp1062
I192
aI199
aI146
aa(lp1063
I91
aI199
aI146
aa(lp1064
I192
aI91
aI146
aa(lp1065
I42
aI49
aI102
aa(lp1066
I42
aI148
aI102
aa(lp1067
I42
aI148
aI49
aa(lp1068
I7
aI21
aI52
aa(lp1069
I42
aI21
aI52
aa(lp1070
I42
aI7
aI52
aa(lp1071
I42
aI7
aI21
aa(lp1072
I49
aI7
aI102
aa(lp1073
I42
aI7
aI102
aa(lp1074
I42
aI49
aI7
aa(lp1075
I42
aI49
aI21
aa(lp1076
I42
aI21
aI10
aa(lp1077
I42
aI49
aI10
aa(lp1078
I42
aI18
aI10
aa(lp1079
I42
aI49
aI18
aa(lp1080
I42
aI148
aI10
aa(lp1081
I42
aI148
aI18
aa(lp1082
I47
aI161
aI158
aa(lp1083
I47
aI148
aI158
aa(lp1084
I47
aI148
aI161
aa(lp1085
I47
aI158
aI89
aa(lp1086
I47
aI62
aI89
aa(lp1087
I47
aI62
aI158
aa(lp1088
I47
aI158
aI44
aa(lp1089
I47
aI148
aI44
aa(lp1090
I47
aI44
aI10
aa(lp1091
I47
aI12
aI10
aa(lp1092
I47
aI12
aI44
aa(lp1093
I47
aI44
aI147
aa(lp1094
I47
aI158
aI147
aa(lp1095
I47
aI62
aI147
aa(lp1096
I47
aI23
aI147
aa(lp1097
I47
aI23
aI44
aa(lp1098
I47
aI12
aI23
aa(lp1099
I47
aI62
aI23
aa(lp1100
I62
aI12
aI23
aa(lp1101
I47
aI62
aI12
aa(lp1102
I125
aI160
aI194
aa(lp1103
I125
aI161
aI194
aa(lp1104
I125
aI161
aI160
aa(lp1105
I70
aI161
aI160
aa(lp1106
I125
aI70
aI160
aa(lp1107
I125
aI70
aI161
aa(lp1108
I125
aI68
aI194
aa(lp1109
I125
aI160
aI68
aa(lp1110
I125
aI70
aI68
aa(lp1111
I125
aI33
aI194
aa(lp1112
I125
aI33
aI68
aa(lp1113
I33
aI70
aI68
aa(lp1114
I125
aI33
aI70
aa(lp1115
I125
aI163
aI194
aa(lp1116
I125
aI161
aI163
aa(lp1117
I125
aI33
aI163
aa(lp1118
I67
aI41
aI112
aa(lp1119
I67
aI150
aI112
aa(lp1120
I67
aI150
aI41
aa(lp1121
I105
aI150
aI41
aa(lp1122
I67
aI105
aI41
aa(lp1123
I67
aI105
aI150
aa(lp1124
I67
aI150
aI79
aa(lp1125
I67
aI105
aI79
aa(lp1126
I67
aI5
aI22
aa(lp1127
I67
aI41
aI22
aa(lp1128
I67
aI41
aI5
aa(lp1129
I67
aI73
aI22
aa(lp1130
I67
aI105
aI22
aa(lp1131
I67
aI105
aI73
aa(lp1132
I67
aI79
aI73
aa(lp1133
I149
aI150
aI165
aa(lp1134
I149
aI121
aI165
aa(lp1135
I149
aI121
aI150
aa(lp1136
I149
aI164
aI165
aa(lp1137
I149
aI164
aI150
aa(lp1138
I149
aI150
aI79
aa(lp1139
I149
aI67
aI79
aa(lp1140
I149
aI67
aI150
aa(lp1141
I149
aI150
aI112
aa(lp1142
I149
aI164
aI112
aa(lp1143
I149
aI67
aI112
aa(lp1144
I67
aI164
aI112
aa(lp1145
I149
aI67
aI164
aa(lp1146
I100
aI39
aI68
aa(lp1147
I100
aI33
aI68
aa(lp1148
I100
aI33
aI39
aa(lp1149
I100
aI70
aI68
aa(lp1150
I100
aI33
aI70
aa(lp1151
I100
aI7
aI5
aa(lp1152
I100
aI14
aI5
aa(lp1153
I100
aI14
aI7
aa(lp1154
I7
aI5
aI52
aa(lp1155
I100
aI5
aI52
aa(lp1156
I100
aI7
aI52
aa(lp1157
I100
aI125
aI70
aa(lp1158
I100
aI125
aI33
aa(lp1159
I81
aI34
aI94
aa(lp1160
I93
aI34
aI94
aa(lp1161
I93
aI81
aI94
aa(lp1162
I93
aI81
aI34
aa(lp1163
I93
aI94
aI77
aa(lp1164
I93
aI34
aI77
aa(lp1165
I93
aI137
aI77
aa(lp1166
I93
aI34
aI137
aa(lp1167
I93
aI153
aI137
aa(lp1168
I93
aI153
aI34
aa(lp1169
I93
aI78
aI77
aa(lp1170
I93
aI78
aI94
aa(lp1171
I93
aI152
aI77
aa(lp1172
I93
aI152
aI137
aa(lp1173
I93
aI78
aI152
aa(lp1174
I93
aI137
aI138
aa(lp1175
I93
aI152
aI138
aa(lp1176
I157
aI110
aI132
aa(lp1177
I157
aI127
aI132
aa(lp1178
I157
aI127
aI110
aa(lp1179
I132
aI196
aI55
aa(lp1180
I157
aI196
aI55
aa(lp1181
I157
aI132
aI55
aa(lp1182
I157
aI132
aI196
aa(lp1183
I157
aI110
aI196
aa(lp1184
I127
aI110
aI89
aa(lp1185
I157
aI110
aI89
aa(lp1186
I157
aI127
aI89
aa(lp1187
I157
aI198
aI55
aa(lp1188
I157
aI196
aI198
aa(lp1189
I157
aI110
aI198
aa(lp1190
I110
aI158
aI89
aa(lp1191
I157
aI158
aI89
aa(lp1192
I157
aI110
aI158
aa(lp1193
I157
aI96
aI55
aa(lp1194
I157
aI96
aI198
aa(lp1195
I157
aI198
aI197
aa(lp1196
I157
aI158
aI197
aa(lp1197
I157
aI158
aI198
aa(lp1198
I157
aI110
aI197
aa(lp1199
I157
aI96
aI46
aa(lp1200
I157
aI158
aI46
aa(lp1201
I157
aI158
aI96
aa(lp1202
I157
aI95
aI198
aa(lp1203
I157
aI95
aI96
aa(lp1204
I157
aI95
aI158
aa(lp1205
I143
aI65
aI94
aa(lp1206
I143
aI123
aI94
aa(lp1207
I143
aI123
aI65
aa(lp1208
I143
aI78
aI94
aa(lp1209
I143
aI78
aI65
aa(lp1210
I143
aI54
aI94
aa(lp1211
I143
aI123
aI54
aa(lp1212
I143
aI78
aI54
aa(lp1213
I143
aI80
aI99
aa(lp1214
I143
aI123
aI99
aa(lp1215
I143
aI123
aI80
aa(lp1216
I143
aI65
aI99
aa(lp1217
I143
aI65
aI77
aa(lp1218
I143
aI78
aI77
aa(lp1219
I143
aI99
aI77
aa(lp1220
I143
aI80
aI77
aa(lp1221
I143
aI187
aI77
aa(lp1222
I143
aI187
aI80
aa(lp1223
I143
aI78
aI187
aa(lp1224
I143
aI98
aI80
aa(lp1225
I143
aI98
aI187
aa(lp1226
I143
aI98
aI123
aa(lp1227
I143
aI30
aI54
aa(lp1228
I143
aI123
aI30
aa(lp1229
I143
aI69
aI54
aa(lp1230
I143
aI69
aI30
aa(lp1231
I143
aI69
aI187
aa(lp1232
I143
aI69
aI98
aa(lp1233
I143
aI187
aI85
aa(lp1234
I143
aI78
aI85
aa(lp1235
I143
aI98
aI30
aa(lp1236
I139
aI176
aI141
aa(lp1237
I139
aI140
aI141
aa(lp1238
I139
aI140
aI176
aa(lp1239
I139
aI19
aI141
aa(lp1240
I139
aI19
aI140
aa(lp1241
I139
aI109
aI141
aa(lp1242
I139
aI109
aI176
aa(lp1243
I139
aI176
aI130
aa(lp1244
I139
aI140
aI130
aa(lp1245
I139
aI152
aI130
aa(lp1246
I139
aI152
aI176
aa(lp1247
I139
aI140
aI71
aa(lp1248
I139
aI19
aI71
aa(lp1249
I139
aI130
aI138
aa(lp1250
I139
aI152
aI138
aa(lp1251
I139
aI176
aI85
aa(lp1252
I139
aI152
aI85
aa(lp1253
I139
aI78
aI152
aa(lp1254
I139
aI93
aI152
aa(lp1255
I139
aI93
aI78
aa(lp1256
I93
aI78
aI19
aa(lp1257
I139
aI78
aI19
aa(lp1258
I139
aI93
aI19
aa(lp1259
I93
aI19
aI71
aa(lp1260
I139
aI93
aI71
aa(lp1261
I139
aI93
aI138
aa(lp1262
I151
aI179
aI182
aa(lp1263
I167
aI179
aI182
aa(lp1264
I167
aI151
aI182
aa(lp1265
I167
aI151
aI179
aa(lp1266
I167
aI170
aI182
aa(lp1267
I167
aI170
aI151
aa(lp1268
I167
aI180
aI182
aa(lp1269
I167
aI180
aI179
aa(lp1270
I170
aI117
aI182
aa(lp1271
I167
aI117
aI182
aa(lp1272
I167
aI170
aI117
aa(lp1273
I180
aI117
aI182
aa(lp1274
I167
aI180
aI117
aa(lp1275
I167
aI177
aI179
aa(lp1276
I167
aI177
aI151
aa(lp1277
I167
aI180
aI177
aa(lp1278
I133
aI121
aI151
aa(lp1279
I133
aI76
aI151
aa(lp1280
I133
aI76
aI121
aa(lp1281
I133
aI151
aI119
aa(lp1282
I133
aI76
aI119
aa(lp1283
I133
aI165
aI119
aa(lp1284
I133
aI76
aI165
aa(lp1285
I133
aI121
aI165
aa(lp1286
I133
aI108
aI119
aa(lp1287
I133
aI108
aI165
aa(lp1288
I133
aI156
aI119
aa(lp1289
I133
aI156
aI108
aa(lp1290
I121
aI156
aI155
aa(lp1291
I133
aI156
aI155
aa(lp1292
I133
aI121
aI155
aa(lp1293
I133
aI121
aI156
aa(lp1294
I133
aI149
aI165
aa(lp1295
I133
aI149
aI121
aa(lp1296
I133
aI164
aI165
aa(lp1297
I133
aI149
aI164
aa(lp1298
I133
aI164
aI108
aa(lp1299
I29
aI39
aI82
aa(lp1300
I29
aI28
aI82
aa(lp1301
I29
aI28
aI39
aa(lp1302
I14
aI39
aI82
aa(lp1303
I29
aI14
aI82
aa(lp1304
I29
aI14
aI39
aa(lp1305
I14
aI28
aI39
aa(lp1306
I29
aI14
aI28
aa(lp1307
I29
aI82
aI126
aa(lp1308
I29
aI75
aI126
aa(lp1309
I29
aI75
aI82
aa(lp1310
I29
aI28
aI126
aa(lp1311
I29
aI28
aI75
aa(lp1312
I29
aI114
aI126
aa(lp1313
I29
aI90
aI126
aa(lp1314
I29
aI90
aI114
aa(lp1315
I29
aI28
aI114
aa(lp1316
I29
aI28
aI90
aa(lp1317
I29
aI41
aI126
aa(lp1318
I29
aI41
aI82
aa(lp1319
I29
aI38
aI126
aa(lp1320
I29
aI41
aI38
aa(lp1321
I29
aI38
aI90
aa(lp1322
I29
aI90
aI15
aa(lp1323
I29
aI38
aI15
aa(lp1324
I41
aI38
aI15
aa(lp1325
I29
aI41
aI15
aa(lp1326
I29
aI14
aI15
aa(lp1327
I29
aI14
aI41
aa(lp1328
I29
aI16
aI15
aa(lp1329
I29
aI16
aI90
aa(lp1330
I29
aI28
aI16
aa(lp1331
I29
aI14
aI16
aa(lp1332
I14
aI28
aI16
aa(lp1333
I36
aI39
aI82
aa(lp1334
I36
aI14
aI82
aa(lp1335
I36
aI14
aI39
aa(lp1336
I36
aI112
aI82
aa(lp1337
I36
aI88
aI82
aa(lp1338
I36
aI88
aI112
aa(lp1339
I36
aI41
aI5
aa(lp1340
I36
aI14
aI5
aa(lp1341
I36
aI14
aI41
aa(lp1342
I36
aI41
aI82
aa(lp1343
I36
aI41
aI112
aa(lp1344
I36
aI29
aI82
aa(lp1345
I36
aI29
aI41
aa(lp1346
I36
aI29
aI14
aa(lp1347
I36
aI67
aI112
aa(lp1348
I36
aI67
aI41
aa(lp1349
I36
aI67
aI5
aa(lp1350
I87
aI28
aI16
aa(lp1351
I87
aI14
aI16
aa(lp1352
I87
aI14
aI28
aa(lp1353
I87
aI16
aI163
aa(lp1354
I87
aI28
aI163
aa(lp1355
I87
aI7
aI16
aa(lp1356
I87
aI14
aI7
aa(lp1357
I87
aI28
aI39
aa(lp1358
I87
aI14
aI39
aa(lp1359
I87
aI33
aI39
aa(lp1360
I87
aI33
aI28
aa(lp1361
I87
aI163
aI75
aa(lp1362
I87
aI28
aI75
aa(lp1363
I87
aI33
aI75
aa(lp1364
I87
aI33
aI163
aa(lp1365
I87
aI100
aI7
aa(lp1366
I87
aI100
aI14
aa(lp1367
I100
aI14
aI39
aa(lp1368
I87
aI100
aI39
aa(lp1369
I87
aI100
aI33
aa(lp1370
I87
aI163
aI102
aa(lp1371
I87
aI16
aI102
aa(lp1372
I87
aI63
aI102
aa(lp1373
I87
aI63
aI16
aa(lp1374
I87
aI63
aI7
aa(lp1375
I87
aI125
aI163
aa(lp1376
I87
aI125
aI33
aa(lp1377
I87
aI7
aI102
aa(lp1378
I87
aI49
aI102
aa(lp1379
I87
aI49
aI7
aa(lp1380
I87
aI63
aI49
aa(lp1381
I87
aI42
aI102
aa(lp1382
I87
aI42
aI7
aa(lp1383
I64
aI138
aI119
aa(lp1384
I64
aI129
aI119
aa(lp1385
I64
aI129
aI138
aa(lp1386
I64
aI155
aI119
aa(lp1387
I64
aI156
aI119
aa(lp1388
I64
aI156
aI155
aa(lp1389
I64
aI133
aI119
aa(lp1390
I64
aI133
aI156
aa(lp1391
I64
aI121
aI155
aa(lp1392
I64
aI121
aI156
aa(lp1393
I64
aI151
aI119
aa(lp1394
I64
aI129
aI151
aa(lp1395
I64
aI133
aI151
aa(lp1396
I64
aI133
aI121
aa(lp1397
I64
aI121
aI151
aa(lp1398
I3
aI19
aI71
aa(lp1399
I3
aI50
aI71
aa(lp1400
I3
aI50
aI19
aa(lp1401
I3
aI25
aI48
aa(lp1402
I3
aI20
aI48
aa(lp1403
I3
aI20
aI25
aa(lp1404
I3
aI50
aI48
aa(lp1405
I3
aI50
aI25
aa(lp1406
I50
aI20
aI48
aa(lp1407
I3
aI50
aI20
aa(lp1408
I3
aI27
aI25
aa(lp1409
I3
aI19
aI25
aa(lp1410
I3
aI19
aI27
aa(lp1411
I3
aI50
aI27
aa(lp1412
I24
aI20
aI10
aa(lp1413
I3
aI20
aI10
aa(lp1414
I3
aI24
aI10
aa(lp1415
I3
aI24
aI20
aa(lp1416
I24
aI12
aI10
aa(lp1417
I3
aI12
aI10
aa(lp1418
I3
aI24
aI12
aa(lp1419
I3
aI25
aI10
aa(lp1420
I3
aI12
aI25
aa(lp1421
I3
aI54
aI25
aa(lp1422
I3
aI19
aI54
aa(lp1423
I129
aI140
aI71
aa(lp1424
I43
aI140
aI71
aa(lp1425
I43
aI129
aI71
aa(lp1426
I43
aI129
aI140
aa(lp1427
I43
aI50
aI71
aa(lp1428
I43
aI50
aI140
aa(lp1429
I43
aI140
aI66
aa(lp1430
I43
aI129
aI66
aa(lp1431
I43
aI50
aI66
aa(lp1432
I43
aI3
aI71
aa(lp1433
I43
aI3
aI50
aa(lp1434
I43
aI50
aI20
aa(lp1435
I43
aI3
aI20
aa(lp1436
I43
aI51
aI66
aa(lp1437
I43
aI50
aI51
aa(lp1438
I43
aI20
aI106
aa(lp1439
I43
aI60
aI106
aa(lp1440
I43
aI60
aI20
aa(lp1441
I43
aI20
aI51
aa(lp1442
I43
aI60
aI51
aa(lp1443
I43
aI51
aI48
aa(lp1444
I43
aI20
aI48
aa(lp1445
I43
aI50
aI48
aa(lp1446
I13
aI23
aI54
aa(lp1447
I13
aI12
aI54
aa(lp1448
I13
aI12
aI23
aa(lp1449
I13
aI62
aI54
aa(lp1450
I13
aI62
aI23
aa(lp1451
I13
aI62
aI12
aa(lp1452
I13
aI19
aI54
aa(lp1453
I13
aI3
aI54
aa(lp1454
I13
aI3
aI19
aa(lp1455
I13
aI54
aI25
aa(lp1456
I13
aI12
aI25
aa(lp1457
I13
aI3
aI25
aa(lp1458
I13
aI3
aI12
aa(lp1459
I13
aI24
aI12
aa(lp1460
I13
aI3
aI24
aa(lp1461
I13
aI54
aI94
aa(lp1462
I13
aI62
aI94
aa(lp1463
I62
aI81
aI94
aa(lp1464
I13
aI81
aI94
aa(lp1465
I13
aI62
aI81
aa(lp1466
I13
aI47
aI12
aa(lp1467
I13
aI47
aI62
aa(lp1468
I62
aI81
aI89
aa(lp1469
I13
aI81
aI89
aa(lp1470
I13
aI62
aI89
aa(lp1471
I175
aI41
aI38
aa(lp1472
I175
aI136
aI38
aa(lp1473
I175
aI136
aI41
aa(lp1474
I175
aI120
aI8
aa(lp1475
I175
aI35
aI8
aa(lp1476
I175
aI35
aI120
aa(lp1477
I175
aI115
aI38
aa(lp1478
I175
aI136
aI115
aa(lp1479
I175
aI115
aI120
aa(lp1480
I175
aI136
aI120
aa(lp1481
I175
aI120
aI118
aa(lp1482
I175
aI35
aI118
aa(lp1483
I175
aI136
aI118
aa(lp1484
I136
aI35
aI118
aa(lp1485
I175
aI136
aI35
aa(lp1486
I175
aI35
aI171
aa(lp1487
I175
aI136
aI171
aa(lp1488
I175
aI105
aI171
aa(lp1489
I175
aI105
aI35
aa(lp1490
I175
aI171
aI174
aa(lp1491
I175
aI136
aI174
aa(lp1492
I175
aI41
aI174
aa(lp1493
I175
aI174
aI165
aa(lp1494
I175
aI171
aI165
aa(lp1495
I175
aI41
aI165
aa(lp1496
I175
aI150
aI165
aa(lp1497
I175
aI150
aI171
aa(lp1498
I175
aI105
aI150
aa(lp1499
I175
aI150
aI41
aa(lp1500
I175
aI105
aI41
aa(lp1501
I2
aI146
aI57
aa(lp1502
I2
aI199
aI57
aa(lp1503
I2
aI199
aI146
aa(lp1504
I2
aI92
aI57
aa(lp1505
I2
aI37
aI57
aa(lp1506
I2
aI37
aI92
aa(lp1507
I2
aI26
aI57
aa(lp1508
I2
aI199
aI26
aa(lp1509
I2
aI98
aI57
aa(lp1510
I2
aI98
aI37
aa(lp1511
I2
aI9
aI57
aa(lp1512
I2
aI9
aI98
aa(lp1513
I2
aI9
aI37
aa(lp1514
I2
aI31
aI92
aa(lp1515
I2
aI37
aI31
aa(lp1516
I2
aI1
aI92
aa(lp1517
I2
aI1
aI31
aa(lp1518
I2
aI30
aI31
aa(lp1519
I2
aI37
aI30
aa(lp1520
I2
aI9
aI30
aa(lp1521
I2
aI1
aI30
aa(lp1522
I2
aI9
aI1
aa(lp1523
I2
aI145
aI57
aa(lp1524
I2
aI145
aI26
aa(lp1525
I2
aI9
aI145
aa(lp1526
I2
aI9
aI26
aa(lp1527
I120
aI146
aI57
aa(lp1528
I2
aI120
aI57
aa(lp1529
I2
aI120
aI146
aa(lp1530
I2
aI120
aI92
aa(lp1531
I120
aI92
aI146
aa(lp1532
I2
aI92
aI146
aa(lp1533
I11
aI199
aI146
aa(lp1534
I11
aI91
aI146
aa(lp1535
I11
aI91
aI199
aa(lp1536
I11
aI91
aI92
aa(lp1537
I11
aI4
aI92
aa(lp1538
I11
aI4
aI91
aa(lp1539
I11
aI1
aI92
aa(lp1540
I11
aI4
aI1
aa(lp1541
I11
aI2
aI146
aa(lp1542
I11
aI2
aI199
aa(lp1543
I11
aI9
aI1
aa(lp1544
I11
aI4
aI9
aa(lp1545
I11
aI2
aI1
aa(lp1546
I11
aI2
aI9
aa(lp1547
I11
aI199
aI26
aa(lp1548
I11
aI2
aI26
aa(lp1549
I11
aI9
aI26
aa(lp1550
I11
aI92
aI146
aa(lp1551
I11
aI2
aI92
aa(lp1552
I185
aI91
aI146
aa(lp1553
I11
aI185
aI146
aa(lp1554
I11
aI185
aI91
aa(lp1555
I11
aI185
aI92
aa(lp1556
I11
aI120
aI146
aa(lp1557
I11
aI120
aI92
aa(lp1558
I11
aI185
aI120
aa(lp1559
I183
aI115
aI146
aa(lp1560
I183
aI185
aI146
aa(lp1561
I183
aI185
aI115
aa(lp1562
I193
aI146
aI182
aa(lp1563
I183
aI146
aI182
aa(lp1564
I183
aI193
aI182
aa(lp1565
I183
aI193
aI146
aa(lp1566
I183
aI142
aI182
aa(lp1567
I183
aI142
aI193
aa(lp1568
I183
aI115
aI172
aa(lp1569
I183
aI136
aI172
aa(lp1570
I183
aI136
aI115
aa(lp1571
I183
aI185
aI136
aa(lp1572
I183
aI181
aI182
aa(lp1573
I183
aI181
aI142
aa(lp1574
I183
aI172
aI182
aa(lp1575
I183
aI170
aI182
aa(lp1576
I183
aI170
aI172
aa(lp1577
I183
aI117
aI182
aa(lp1578
I183
aI170
aI117
aa(lp1579
I183
aI180
aI182
aa(lp1580
I183
aI180
aI181
aa(lp1581
I56
aI50
aI27
aa(lp1582
I56
aI4
aI27
aa(lp1583
I56
aI4
aI50
aa(lp1584
I56
aI186
aI50
aa(lp1585
I56
aI186
aI4
aa(lp1586
I56
aI27
aI66
aa(lp1587
I56
aI50
aI66
aa(lp1588
I56
aI186
aI66
aa(lp1589
I56
aI189
aI66
aa(lp1590
I56
aI186
aI189
aa(lp1591
I56
aI189
aI91
aa(lp1592
I56
aI186
aI91
aa(lp1593
I56
aI4
aI91
aa(lp1594
I56
aI40
aI66
aa(lp1595
I56
aI40
aI27
aa(lp1596
I56
aI40
aI189
aa(lp1597
I56
aI9
aI27
aa(lp1598
I56
aI9
aI40
aa(lp1599
I56
aI4
aI9
aa(lp1600
I56
aI189
aI26
aa(lp1601
I56
aI40
aI26
aa(lp1602
I56
aI11
aI91
aa(lp1603
I56
aI11
aI4
aa(lp1604
I56
aI9
aI26
aa(lp1605
I56
aI91
aI199
aa(lp1606
I56
aI189
aI199
aa(lp1607
I56
aI11
aI199
aa(lp1608
I56
aI11
aI26
aa(lp1609
I56
aI11
aI9
aa(lp1610
I56
aI199
aI26
aa(lp1611
I72
aI51
aI118
aa(lp1612
I72
aI186
aI118
aa(lp1613
I72
aI186
aI51
aa(lp1614
I72
aI180
aI51
aa(lp1615
I72
aI180
aI186
aa(lp1616
I72
aI60
aI118
aa(lp1617
I72
aI60
aI51
aa(lp1618
I60
aI117
aI51
aa(lp1619
I72
aI117
aI51
aa(lp1620
I72
aI60
aI117
aa(lp1621
I167
aI117
aI51
aa(lp1622
I72
aI167
aI51
aa(lp1623
I72
aI167
aI117
aa(lp1624
I167
aI180
aI51
aa(lp1625
I72
aI167
aI180
aa(lp1626
I72
aI180
aI117
aa(lp1627
I72
aI186
aI181
aa(lp1628
I72
aI180
aI181
aa(lp1629
I72
aI183
aI181
aa(lp1630
I72
aI183
aI180
aa(lp1631
I72
aI35
aI118
aa(lp1632
I72
aI60
aI35
aa(lp1633
I72
aI35
aI117
aa(lp1634
I72
aI117
aI182
aa(lp1635
I72
aI180
aI182
aa(lp1636
I72
aI183
aI182
aa(lp1637
I72
aI183
aI117
aa(lp1638
I72
aI91
aI118
aa(lp1639
I72
aI185
aI118
aa(lp1640
I72
aI185
aI91
aa(lp1641
I72
aI186
aI91
aa(lp1642
I186
aI185
aI91
aa(lp1643
I72
aI186
aI185
aa(lp1644
I72
aI117
aI172
aa(lp1645
I72
aI35
aI172
aa(lp1646
I72
aI170
aI172
aa(lp1647
I72
aI170
aI117
aa(lp1648
I72
aI183
aI172
aa(lp1649
I72
aI183
aI170
aa(lp1650
I72
aI136
aI118
aa(lp1651
I72
aI185
aI136
aa(lp1652
I72
aI136
aI172
aa(lp1653
I72
aI183
aI136
aa(lp1654
I72
aI183
aI185
aa(lp1655
I72
aI136
aI35
aa(lp1656
I184
aI186
aI181
aa(lp1657
I184
aI192
aI181
aa(lp1658
I184
aI192
aI186
aa(lp1659
I184
aI72
aI181
aa(lp1660
I184
aI72
aI186
aa(lp1661
I184
aI186
aI185
aa(lp1662
I184
aI72
aI185
aa(lp1663
I184
aI185
aI91
aa(lp1664
I184
aI186
aI91
aa(lp1665
I184
aI192
aI91
aa(lp1666
I184
aI183
aI181
aa(lp1667
I184
aI72
aI183
aa(lp1668
I184
aI183
aI185
aa(lp1669
I184
aI181
aI142
aa(lp1670
I184
aI192
aI142
aa(lp1671
I184
aI183
aI142
aa(lp1672
I184
aI142
aI193
aa(lp1673
I184
aI192
aI193
aa(lp1674
I184
aI183
aI193
aa(lp1675
I184
aI193
aI146
aa(lp1676
I184
aI183
aI146
aa(lp1677
I184
aI185
aI146
aa(lp1678
I184
aI91
aI146
aa(lp1679
I184
aI192
aI146
aa(lp1680
I24
aI79
aI73
aa(lp1681
I17
aI79
aI73
aa(lp1682
I17
aI24
aI73
aa(lp1683
I17
aI24
aI79
aa(lp1684
I17
aI73
aI22
aa(lp1685
I17
aI67
aI22
aa(lp1686
I17
aI67
aI73
aa(lp1687
I17
aI67
aI79
aa(lp1688
I17
aI20
aI10
aa(lp1689
I17
aI24
aI10
aa(lp1690
I17
aI24
aI20
aa(lp1691
I24
aI20
aI73
aa(lp1692
I17
aI20
aI73
aa(lp1693
I17
aI8
aI22
aa(lp1694
I17
aI73
aI8
aa(lp1695
I17
aI20
aI8
aa(lp1696
I17
aI5
aI22
aa(lp1697
I17
aI7
aI22
aa(lp1698
I17
aI7
aI5
aa(lp1699
I17
aI5
aI52
aa(lp1700
I17
aI7
aI52
aa(lp1701
I21
aI8
aI22
aa(lp1702
I17
aI21
aI22
aa(lp1703
I17
aI21
aI8
aa(lp1704
I17
aI21
aI10
aa(lp1705
I17
aI20
aI21
aa(lp1706
I42
aI52
aI10
aa(lp1707
I17
aI52
aI10
aa(lp1708
I17
aI42
aI10
aa(lp1709
I17
aI42
aI52
aa(lp1710
I17
aI42
aI21
aa(lp1711
I17
aI21
aI52
aa(lp1712
I17
aI7
aI21
aa(lp1713
I127
aI81
aI89
aa(lp1714
I122
aI81
aI89
aa(lp1715
I122
aI127
aI89
aa(lp1716
I122
aI127
aI81
aa(lp1717
I122
aI34
aI135
aa(lp1718
I122
aI127
aI135
aa(lp1719
I122
aI127
aI34
aa(lp1720
I127
aI81
aI34
aa(lp1721
I122
aI81
aI34
aa(lp1722
I122
aI108
aI135
aa(lp1723
I122
aI153
aI135
aa(lp1724
I122
aI153
aI108
aa(lp1725
I122
aI116
aI135
aa(lp1726
I122
aI116
aI34
aa(lp1727
I122
aI116
aI153
aa(lp1728
I122
aI153
aI34
aa(lp1729
I122
aI93
aI34
aa(lp1730
I122
aI93
aI81
aa(lp1731
I122
aI93
aI153
aa(lp1732
I42
aI148
aI52
aa(lp1733
I32
aI148
aI52
aa(lp1734
I32
aI42
aI52
aa(lp1735
I32
aI42
aI148
aa(lp1736
I32
aI44
aI10
aa(lp1737
I32
aI148
aI10
aa(lp1738
I32
aI148
aI44
aa(lp1739
I32
aI47
aI10
aa(lp1740
I32
aI47
aI44
aa(lp1741
I32
aI47
aI148
aa(lp1742
I32
aI42
aI10
aa(lp1743
I32
aI12
aI10
aa(lp1744
I32
aI47
aI12
aa(lp1745
I32
aI24
aI10
aa(lp1746
I32
aI24
aI12
aa(lp1747
I24
aI47
aI12
aa(lp1748
I32
aI24
aI47
aa(lp1749
I32
aI52
aI10
aa(lp1750
I32
aI17
aI10
aa(lp1751
I32
aI17
aI52
aa(lp1752
I32
aI17
aI24
aa(lp1753
I17
aI24
aI52
aa(lp1754
I32
aI24
aI52
aa(lp1755
I121
aI150
aI155
aa(lp1756
I154
aI150
aI155
aa(lp1757
I154
aI121
aI155
aa(lp1758
I154
aI121
aI150
aa(lp1759
I149
aI150
aI155
aa(lp1760
I154
aI149
aI155
aa(lp1761
I154
aI149
aI150
aa(lp1762
I154
aI149
aI121
aa(lp1763
I154
aI133
aI155
aa(lp1764
I154
aI133
aI121
aa(lp1765
I154
aI133
aI149
aa(lp1766
I154
aI108
aI155
aa(lp1767
I154
aI156
aI155
aa(lp1768
I154
aI156
aI108
aa(lp1769
I154
aI133
aI156
aa(lp1770
I154
aI133
aI108
aa(lp1771
I154
aI164
aI108
aa(lp1772
I154
aI133
aI164
aa(lp1773
I154
aI149
aI164
aa(lp1774
I154
aI108
aI135
aa(lp1775
I154
aI122
aI135
aa(lp1776
I154
aI122
aI108
aa(lp1777
I154
aI153
aI155
aa(lp1778
I154
aI153
aI108
aa(lp1779
I122
aI153
aI155
aa(lp1780
I154
aI122
aI155
aa(lp1781
I154
aI122
aI153
aa(lp1782
I154
aI135
aI159
aa(lp1783
I154
aI108
aI159
aa(lp1784
I154
aI164
aI159
aa(lp1785
I162
aI122
aI155
aa(lp1786
I162
aI154
aI155
aa(lp1787
I162
aI154
aI122
aa(lp1788
I162
aI122
aI135
aa(lp1789
I162
aI154
aI135
aa(lp1790
I162
aI135
aI159
aa(lp1791
I162
aI154
aI159
aa(lp1792
I162
aI149
aI164
aa(lp1793
I162
aI154
aI164
aa(lp1794
I162
aI154
aI149
aa(lp1795
I162
aI70
aI160
aa(lp1796
I162
aI164
aI160
aa(lp1797
I162
aI164
aI70
aa(lp1798
I162
aI160
aI159
aa(lp1799
I162
aI164
aI159
aa(lp1800
I61
aI81
aI94
aa(lp1801
I61
aI93
aI94
aa(lp1802
I61
aI93
aI81
aa(lp1803
I61
aI3
aI19
aa(lp1804
I61
aI13
aI19
aa(lp1805
I61
aI13
aI3
aa(lp1806
I61
aI13
aI94
aa(lp1807
I61
aI13
aI81
aa(lp1808
I61
aI19
aI94
aa(lp1809
I61
aI78
aI94
aa(lp1810
I61
aI78
aI19
aa(lp1811
I61
aI93
aI78
aa(lp1812
I61
aI93
aI19
aa(lp1813
I61
aI54
aI94
aa(lp1814
I61
aI19
aI54
aa(lp1815
I61
aI13
aI54
aa(lp1816
I113
aI132
aI55
aa(lp1817
I113
aI127
aI55
aa(lp1818
I113
aI127
aI132
aa(lp1819
I113
aI157
aI55
aa(lp1820
I113
aI157
aI132
aa(lp1821
I113
aI157
aI127
aa(lp1822
I113
aI127
aI89
aa(lp1823
I113
aI157
aI89
aa(lp1824
I113
aI81
aI89
aa(lp1825
I113
aI127
aI81
aa(lp1826
I113
aI34
aI55
aa(lp1827
I113
aI127
aI34
aa(lp1828
I113
aI81
aI34
aa(lp1829
I113
aI46
aI55
aa(lp1830
I113
aI65
aI55
aa(lp1831
I113
aI65
aI46
aa(lp1832
I113
aI96
aI55
aa(lp1833
I113
aI96
aI46
aa(lp1834
I113
aI157
aI96
aa(lp1835
I113
aI157
aI46
aa(lp1836
I113
aI89
aI46
aa(lp1837
I113
aI158
aI46
aa(lp1838
I113
aI158
aI89
aa(lp1839
I113
aI157
aI158
aa(lp1840
I113
aI34
aI65
aa(lp1841
I113
aI62
aI46
aa(lp1842
I113
aI62
aI89
aa(lp1843
I113
aI62
aI65
aa(lp1844
I113
aI65
aI94
aa(lp1845
I113
aI34
aI94
aa(lp1846
I113
aI81
aI94
aa(lp1847
I113
aI62
aI94
aa(lp1848
I113
aI62
aI81
aa(lp1849
I144
aI19
aI54
aa(lp1850
I144
aI78
aI54
aa(lp1851
I144
aI78
aI19
aa(lp1852
I144
aI143
aI54
aa(lp1853
I144
aI143
aI78
aa(lp1854
I144
aI69
aI54
aa(lp1855
I144
aI143
aI69
aa(lp1856
I144
aI27
aI54
aa(lp1857
I144
aI19
aI27
aa(lp1858
I144
aI69
aI27
aa(lp1859
I144
aI139
aI19
aa(lp1860
I144
aI139
aI78
aa(lp1861
I144
aI78
aI85
aa(lp1862
I144
aI143
aI85
aa(lp1863
I144
aI40
aI27
aa(lp1864
I144
aI69
aI40
aa(lp1865
I144
aI187
aI85
aa(lp1866
I144
aI69
aI85
aa(lp1867
I144
aI69
aI187
aa(lp1868
I144
aI143
aI187
aa(lp1869
I144
aI40
aI109
aa(lp1870
I144
aI69
aI109
aa(lp1871
I144
aI152
aI85
aa(lp1872
I144
aI78
aI152
aa(lp1873
I144
aI139
aI85
aa(lp1874
I144
aI139
aI152
aa(lp1875
I144
aI27
aI141
aa(lp1876
I144
aI19
aI141
aa(lp1877
I144
aI139
aI141
aa(lp1878
I144
aI40
aI141
aa(lp1879
I144
aI109
aI141
aa(lp1880
I144
aI139
aI109
aa(lp1881
I144
aI145
aI85
aa(lp1882
I144
aI109
aI85
aa(lp1883
I144
aI109
aI145
aa(lp1884
I144
aI69
aI145
aa(lp1885
I144
aI176
aI85
aa(lp1886
I144
aI109
aI176
aa(lp1887
I144
aI139
aI176
aa(lp1888
I168
aI170
aI151
aa(lp1889
I168
aI167
aI151
aa(lp1890
I168
aI167
aI170
aa(lp1891
I168
aI83
aI169
aa(lp1892
I168
aI170
aI169
aa(lp1893
I168
aI170
aI83
aa(lp1894
I168
aI117
aI169
aa(lp1895
I168
aI170
aI117
aa(lp1896
I167
aI117
aI169
aa(lp1897
I168
aI167
aI169
aa(lp1898
I168
aI167
aI117
aa(lp1899
I168
aI151
aI169
aa(lp1900
I168
aI76
aI169
aa(lp1901
I168
aI76
aI151
aa(lp1902
I168
aI76
aI83
aa(lp1903
I168
aI151
aI134
aa(lp1904
I168
aI170
aI134
aa(lp1905
I168
aI83
aI134
aa(lp1906
I168
aI76
aI134
aa(lp1907
I168
aI165
aI134
aa(lp1908
I168
aI83
aI165
aa(lp1909
I168
aI76
aI165
aa(lp1910
I103
aI164
aI112
aa(lp1911
I103
aI67
aI112
aa(lp1912
I103
aI67
aI164
aa(lp1913
I103
aI36
aI112
aa(lp1914
I103
aI36
aI67
aa(lp1915
I164
aI88
aI112
aa(lp1916
I103
aI88
aI112
aa(lp1917
I103
aI164
aI88
aa(lp1918
I103
aI36
aI88
aa(lp1919
I103
aI149
aI164
aa(lp1920
I103
aI149
aI67
aa(lp1921
I103
aI67
aI5
aa(lp1922
I103
aI36
aI5
aa(lp1923
I164
aI88
aI68
aa(lp1924
I103
aI88
aI68
aa(lp1925
I103
aI164
aI68
aa(lp1926
I103
aI39
aI68
aa(lp1927
I103
aI88
aI39
aa(lp1928
I103
aI100
aI68
aa(lp1929
I103
aI100
aI39
aa(lp1930
I103
aI70
aI68
aa(lp1931
I103
aI164
aI70
aa(lp1932
I103
aI100
aI70
aa(lp1933
I103
aI39
aI82
aa(lp1934
I103
aI88
aI82
aa(lp1935
I103
aI36
aI82
aa(lp1936
I103
aI36
aI39
aa(lp1937
I103
aI14
aI39
aa(lp1938
I103
aI100
aI14
aa(lp1939
I103
aI14
aI5
aa(lp1940
I103
aI100
aI5
aa(lp1941
I103
aI36
aI14
aa(lp1942
I101
aI7
aI52
aa(lp1943
I101
aI100
aI52
aa(lp1944
I101
aI100
aI7
aa(lp1945
I101
aI87
aI7
aa(lp1946
I101
aI87
aI100
aa(lp1947
I101
aI42
aI52
aa(lp1948
I101
aI42
aI7
aa(lp1949
I101
aI87
aI42
aa(lp1950
I101
aI148
aI52
aa(lp1951
I101
aI42
aI148
aa(lp1952
I101
aI125
aI70
aa(lp1953
I101
aI100
aI70
aa(lp1954
I101
aI100
aI125
aa(lp1955
I101
aI125
aI33
aa(lp1956
I101
aI100
aI33
aa(lp1957
I101
aI87
aI33
aa(lp1958
I101
aI87
aI125
aa(lp1959
I101
aI148
aI102
aa(lp1960
I101
aI42
aI102
aa(lp1961
I101
aI87
aI102
aa(lp1962
I101
aI32
aI52
aa(lp1963
I101
aI32
aI148
aa(lp1964
I101
aI70
aI161
aa(lp1965
I101
aI125
aI161
aa(lp1966
I101
aI161
aI102
aa(lp1967
I101
aI148
aI161
aa(lp1968
I101
aI163
aI102
aa(lp1969
I101
aI87
aI163
aa(lp1970
I101
aI125
aI163
aa(lp1971
I101
aI161
aI163
aa(lp1972
I128
aI169
aI106
aa(lp1973
I128
aI121
aI106
aa(lp1974
I128
aI121
aI169
aa(lp1975
I128
aI150
aI106
aa(lp1976
I128
aI121
aI150
aa(lp1977
I43
aI129
aI106
aa(lp1978
I128
aI129
aI106
aa(lp1979
I128
aI43
aI106
aa(lp1980
I128
aI43
aI129
aa(lp1981
I128
aI150
aI155
aa(lp1982
I128
aI121
aI155
aa(lp1983
I128
aI64
aI155
aa(lp1984
I128
aI64
aI121
aa(lp1985
I128
aI79
aI106
aa(lp1986
I128
aI150
aI79
aa(lp1987
I128
aI149
aI155
aa(lp1988
I128
aI149
aI150
aa(lp1989
I128
aI149
aI79
aa(lp1990
I128
aI154
aI155
aa(lp1991
I128
aI154
aI149
aa(lp1992
I128
aI162
aI155
aa(lp1993
I128
aI162
aI154
aa(lp1994
I128
aI162
aI149
aa(lp1995
I149
aI24
aI79
aa(lp1996
I128
aI24
aI79
aa(lp1997
I128
aI149
aI24
aa(lp1998
I162
aI149
aI24
aa(lp1999
I128
aI162
aI24
aa(lp2000
I128
aI122
aI155
aa(lp2001
I128
aI162
aI122
aa(lp2002
I162
aI122
aI24
aa(lp2003
I128
aI122
aI24
aa(lp2004
I166
aI60
aI51
aa(lp2005
I166
aI43
aI51
aa(lp2006
I166
aI43
aI60
aa(lp2007
I166
aI117
aI51
aa(lp2008
I166
aI60
aI117
aa(lp2009
I166
aI167
aI51
aa(lp2010
I166
aI167
aI117
aa(lp2011
I166
aI51
aI66
aa(lp2012
I166
aI43
aI66
aa(lp2013
I166
aI180
aI66
aa(lp2014
I166
aI180
aI51
aa(lp2015
I166
aI167
aI180
aa(lp2016
I166
aI129
aI66
aa(lp2017
I166
aI43
aI129
aa(lp2018
I166
aI117
aI106
aa(lp2019
I166
aI60
aI106
aa(lp2020
I166
aI43
aI106
aa(lp2021
I166
aI177
aI66
aa(lp2022
I166
aI180
aI177
aa(lp2023
I166
aI167
aI177
aa(lp2024
I166
aI129
aI177
aa(lp2025
I166
aI129
aI106
aa(lp2026
I166
aI169
aI106
aa(lp2027
I166
aI117
aI169
aa(lp2028
I166
aI167
aI169
aa(lp2029
I166
aI177
aI151
aa(lp2030
I166
aI129
aI151
aa(lp2031
I166
aI167
aI151
aa(lp2032
I166
aI128
aI106
aa(lp2033
I166
aI128
aI169
aa(lp2034
I166
aI128
aI129
aa(lp2035
I166
aI151
aI169
aa(lp2036
I166
aI121
aI169
aa(lp2037
I166
aI121
aI151
aa(lp2038
I166
aI168
aI169
aa(lp2039
I166
aI168
aI151
aa(lp2040
I166
aI168
aI167
aa(lp2041
I166
aI128
aI121
aa(lp2042
I166
aI64
aI151
aa(lp2043
I166
aI64
aI121
aa(lp2044
I166
aI64
aI129
aa(lp2045
I166
aI128
aI64
aa(lp2046
I128
aI64
aI129
aa(lp2047
I45
aI47
aI12
aa(lp2048
I45
aI24
aI12
aa(lp2049
I45
aI24
aI47
aa(lp2050
I45
aI13
aI12
aa(lp2051
I45
aI13
aI47
aa(lp2052
I45
aI13
aI24
aa(lp2053
I45
aI62
aI89
aa(lp2054
I45
aI47
aI89
aa(lp2055
I45
aI47
aI62
aa(lp2056
I45
aI13
aI89
aa(lp2057
I45
aI13
aI62
aa(lp2058
I61
aI13
aI24
aa(lp2059
I45
aI61
aI24
aa(lp2060
I45
aI61
aI13
aa(lp2061
I45
aI122
aI24
aa(lp2062
I45
aI162
aI24
aa(lp2063
I45
aI162
aI122
aa(lp2064
I45
aI32
aI47
aa(lp2065
I45
aI32
aI24
aa(lp2066
I45
aI81
aI89
aa(lp2067
I45
aI13
aI81
aa(lp2068
I45
aI61
aI81
aa(lp2069
I45
aI127
aI89
aa(lp2070
I45
aI122
aI89
aa(lp2071
I45
aI122
aI127
aa(lp2072
I45
aI122
aI81
aa(lp2073
I61
aI122
aI81
aa(lp2074
I45
aI61
aI122
aa(lp2075
I59
aI41
aI38
aa(lp2076
I59
aI175
aI38
aa(lp2077
I59
aI175
aI41
aa(lp2078
I59
aI120
aI8
aa(lp2079
I59
aI175
aI8
aa(lp2080
I59
aI175
aI120
aa(lp2081
I59
aI105
aI41
aa(lp2082
I59
aI175
aI105
aa(lp2083
I59
aI120
aI38
aa(lp2084
I59
aI115
aI38
aa(lp2085
I59
aI115
aI120
aa(lp2086
I59
aI175
aI115
aa(lp2087
I59
aI8
aI22
aa(lp2088
I59
aI105
aI22
aa(lp2089
I59
aI105
aI8
aa(lp2090
I59
aI35
aI8
aa(lp2091
I59
aI105
aI35
aa(lp2092
I59
aI175
aI35
aa(lp2093
I59
aI21
aI22
aa(lp2094
I59
aI21
aI8
aa(lp2095
I59
aI120
aI21
aa(lp2096
I59
aI63
aI38
aa(lp2097
I59
aI63
aI120
aa(lp2098
I59
aI15
aI22
aa(lp2099
I59
aI41
aI22
aa(lp2100
I59
aI41
aI15
aa(lp2101
I59
aI38
aI15
aa(lp2102
I59
aI67
aI22
aa(lp2103
I59
aI67
aI41
aa(lp2104
I59
aI67
aI105
aa(lp2105
I59
aI63
aI22
aa(lp2106
I59
aI63
aI21
aa(lp2107
I59
aI63
aI15
aa(lp2108
I58
aI24
aI79
aa(lp2109
I58
aI149
aI79
aa(lp2110
I58
aI149
aI24
aa(lp2111
I58
aI17
aI79
aa(lp2112
I58
aI17
aI24
aa(lp2113
I58
aI67
aI79
aa(lp2114
I58
aI149
aI67
aa(lp2115
I58
aI17
aI67
aa(lp2116
I58
aI67
aI5
aa(lp2117
I58
aI103
aI5
aa(lp2118
I58
aI103
aI67
aa(lp2119
I58
aI103
aI149
aa(lp2120
I58
aI5
aI22
aa(lp2121
I58
aI67
aI22
aa(lp2122
I58
aI17
aI22
aa(lp2123
I58
aI17
aI5
aa(lp2124
I58
aI5
aI52
aa(lp2125
I58
aI17
aI52
aa(lp2126
I58
aI100
aI52
aa(lp2127
I58
aI100
aI5
aa(lp2128
I58
aI103
aI100
aa(lp2129
I58
aI100
aI70
aa(lp2130
I58
aI103
aI70
aa(lp2131
I58
aI149
aI164
aa(lp2132
I58
aI162
aI164
aa(lp2133
I58
aI162
aI149
aa(lp2134
I58
aI103
aI164
aa(lp2135
I58
aI164
aI70
aa(lp2136
I58
aI162
aI70
aa(lp2137
I84
aI19
aI71
aa(lp2138
I84
aI93
aI71
aa(lp2139
I84
aI93
aI19
aa(lp2140
I61
aI19
aI71
aa(lp2141
I84
aI61
aI71
aa(lp2142
I84
aI61
aI19
aa(lp2143
I84
aI61
aI93
aa(lp2144
I84
aI93
aI81
aa(lp2145
I84
aI122
aI81
aa(lp2146
I84
aI122
aI93
aa(lp2147
I84
aI61
aI81
aa(lp2148
I84
aI61
aI122
aa(lp2149
I84
aI153
aI155
aa(lp2150
I84
aI122
aI155
aa(lp2151
I84
aI122
aI153
aa(lp2152
I84
aI93
aI153
aa(lp2153
I128
aI64
aI71
aa(lp2154
I84
aI64
aI71
aa(lp2155
I84
aI128
aI71
aa(lp2156
I84
aI128
aI64
aa(lp2157
I84
aI64
aI155
aa(lp2158
I84
aI128
aI155
aa(lp2159
I84
aI153
aI137
aa(lp2160
I84
aI93
aI137
aa(lp2161
I84
aI93
aI138
aa(lp2162
I84
aI139
aI138
aa(lp2163
I84
aI139
aI93
aa(lp2164
I84
aI139
aI71
aa(lp2165
I84
aI129
aI138
aa(lp2166
I84
aI64
aI138
aa(lp2167
I84
aI64
aI129
aa(lp2168
I64
aI129
aI71
aa(lp2169
I84
aI129
aI71
aa(lp2170
I84
aI137
aI138
aa(lp2171
I84
aI155
aI119
aa(lp2172
I84
aI64
aI119
aa(lp2173
I84
aI137
aI119
aa(lp2174
I84
aI153
aI119
aa(lp2175
I84
aI130
aI138
aa(lp2176
I84
aI139
aI130
aa(lp2177
I84
aI129
aI130
aa(lp2178
I84
aI138
aI119
aa(lp2179
I84
aI140
aI130
aa(lp2180
I84
aI139
aI140
aa(lp2181
I84
aI140
aI71
aa(lp2182
I84
aI129
aI140
aa(lp2183
I53
aI3
aI71
aa(lp2184
I53
aI43
aI71
aa(lp2185
I53
aI43
aI3
aa(lp2186
I53
aI129
aI71
aa(lp2187
I53
aI43
aI129
aa(lp2188
I53
aI128
aI129
aa(lp2189
I53
aI128
aI43
aa(lp2190
I53
aI43
aI106
aa(lp2191
I53
aI128
aI106
aa(lp2192
I53
aI19
aI71
aa(lp2193
I53
aI3
aI19
aa(lp2194
I53
aI61
aI71
aa(lp2195
I53
aI61
aI19
aa(lp2196
I53
aI61
aI3
aa(lp2197
I53
aI84
aI71
aa(lp2198
I53
aI84
aI61
aa(lp2199
I53
aI128
aI71
aa(lp2200
I53
aI84
aI128
aa(lp2201
I53
aI64
aI71
aa(lp2202
I53
aI64
aI129
aa(lp2203
I53
aI128
aI64
aa(lp2204
I53
aI20
aI106
aa(lp2205
I53
aI43
aI20
aa(lp2206
I53
aI3
aI20
aa(lp2207
I53
aI61
aI122
aa(lp2208
I53
aI84
aI122
aa(lp2209
I53
aI3
aI24
aa(lp2210
I53
aI13
aI24
aa(lp2211
I53
aI13
aI3
aa(lp2212
I53
aI61
aI24
aa(lp2213
I53
aI61
aI13
aa(lp2214
I53
aI45
aI24
aa(lp2215
I53
aI45
aI61
aa(lp2216
I53
aI73
aI106
aa(lp2217
I53
aI20
aI73
aa(lp2218
I53
aI79
aI106
aa(lp2219
I53
aI128
aI79
aa(lp2220
I53
aI24
aI79
aa(lp2221
I53
aI128
aI24
aa(lp2222
I53
aI45
aI122
aa(lp2223
I53
aI122
aI155
aa(lp2224
I53
aI128
aI155
aa(lp2225
I53
aI128
aI122
aa(lp2226
I53
aI84
aI155
aa(lp2227
I53
aI122
aI24
aa(lp2228
I53
aI24
aI73
aa(lp2229
I53
aI24
aI20
aa(lp2230
I53
aI79
aI73
aa(lp2231
I131
aI32
aI24
aa(lp2232
I131
aI45
aI24
aa(lp2233
I131
aI45
aI32
aa(lp2234
I131
aI161
aI160
aa(lp2235
I131
aI110
aI160
aa(lp2236
I131
aI110
aI161
aa(lp2237
I131
aI32
aI47
aa(lp2238
I131
aI45
aI47
aa(lp2239
I131
aI160
aI159
aa(lp2240
I131
aI162
aI159
aa(lp2241
I131
aI162
aI160
aa(lp2242
I131
aI127
aI89
aa(lp2243
I131
aI45
aI89
aa(lp2244
I131
aI45
aI127
aa(lp2245
I131
aI122
aI127
aa(lp2246
I131
aI45
aI122
aa(lp2247
I131
aI162
aI122
aa(lp2248
I131
aI45
aI162
aa(lp2249
I131
aI70
aI160
aa(lp2250
I131
aI70
aI161
aa(lp2251
I131
aI101
aI161
aa(lp2252
I131
aI101
aI70
aa(lp2253
I131
aI148
aI161
aa(lp2254
I131
aI101
aI148
aa(lp2255
I131
aI32
aI148
aa(lp2256
I131
aI101
aI32
aa(lp2257
I131
aI161
aI158
aa(lp2258
I131
aI110
aI158
aa(lp2259
I131
aI47
aI161
aa(lp2260
I131
aI47
aI148
aa(lp2261
I131
aI47
aI158
aa(lp2262
I131
aI135
aI159
aa(lp2263
I131
aI127
aI159
aa(lp2264
I131
aI127
aI135
aa(lp2265
I131
aI162
aI135
aa(lp2266
I131
aI122
aI135
aa(lp2267
I131
aI110
aI159
aa(lp2268
I131
aI158
aI89
aa(lp2269
I131
aI110
aI89
aa(lp2270
I131
aI47
aI89
aa(lp2271
I131
aI127
aI110
aa(lp2272
I74
aI149
aI24
aa(lp2273
I74
aI162
aI24
aa(lp2274
I74
aI162
aI149
aa(lp2275
I74
aI58
aI24
aa(lp2276
I74
aI58
aI149
aa(lp2277
I74
aI58
aI162
aa(lp2278
I74
aI24
aI52
aa(lp2279
I74
aI17
aI52
aa(lp2280
I74
aI17
aI24
aa(lp2281
I74
aI58
aI52
aa(lp2282
I74
aI58
aI17
aa(lp2283
I74
aI162
aI70
aa(lp2284
I74
aI58
aI70
aa(lp2285
I74
aI32
aI52
aa(lp2286
I74
aI32
aI24
aa(lp2287
I74
aI131
aI24
aa(lp2288
I74
aI131
aI32
aa(lp2289
I74
aI45
aI24
aa(lp2290
I74
aI45
aI162
aa(lp2291
I74
aI131
aI45
aa(lp2292
I74
aI131
aI162
aa(lp2293
I74
aI100
aI52
aa(lp2294
I74
aI58
aI100
aa(lp2295
I74
aI100
aI70
aa(lp2296
I74
aI101
aI52
aa(lp2297
I74
aI101
aI32
aa(lp2298
I74
aI131
aI101
aa(lp2299
I74
aI101
aI70
aa(lp2300
I74
aI131
aI70
aa(lp2301
I74
aI70
aI160
aa(lp2302
I74
aI162
aI160
aa(lp2303
I74
aI131
aI160
aa(lp2304
I74
aI101
aI100
aa.