(lp0
(lp1
I178
aI5
aI83
aa(lp2
I177
aI5
aI83
aa(lp3
I177
aI178
aI83
aa(lp4
I177
aI178
aI5
aa(lp5
I174
aI45
aI21
aa(lp6
I177
aI45
aI21
aa(lp7
I177
aI174
aI21
aa(lp8
I177
aI174
aI45
aa(lp9
I173
aI45
aI21
aa(lp10
I173
aI174
aI21
aa(lp11
I173
aI174
aI45
aa(lp12
I173
aI88
aI21
aa(lp13
I23
aI88
aI21
aa(lp14
I23
aI173
aI21
aa(lp15
I23
aI173
aI88
aa(lp16
I108
aI117
aI103
aa(lp17
I192
aI117
aI103
aa(lp18
I192
aI108
aI103
aa(lp19
I192
aI108
aI117
aa(lp20
I178
aI5
aI179
aa(lp21
I158
aI5
aI179
aa(lp22
I158
aI178
aI179
aa(lp23
I158
aI178
aI5
aa(lp24
I177
aI178
aI179
aa(lp25
I158
aI177
aI179
aa(lp26
I158
aI177
aI178
aa(lp27
I158
aI177
aI5
aa(lp28
I177
aI152
aI76
aa(lp29
I158
aI152
aI76
aa(lp30
I158
aI177
aI76
aa(lp31
I158
aI177
aI152
aa(lp32
I43
aI32
aI111
aa(lp33
I7
aI32
aI111
aa(lp34
I7
aI43
aI111
aa(lp35
I7
aI43
aI32
aa(lp36
I73
aI32
aI111
aa(lp37
I7
aI73
aI111
aa(lp38
I7
aI73
aI32
aa(lp39
I41
aI174
aI45
aa(lp40
I41
aI173
aI45
aa(lp41
I41
aI173
aI174
aa(lp42
I85
aI5
aI83
aa(lp43
I85
aI178
aI83
aa(lp44
I85
aI178
aI5
aa(lp45
I85
aI5
aI179
aa(lp46
I85
aI178
aI179
aa(lp47
I33
aI5
aI179
aa(lp48
I33
aI158
aI179
aa(lp49
I33
aI158
aI5
aa(lp50
I158
aI73
aI5
aa(lp51
I33
aI73
aI5
aa(lp52
I33
aI158
aI73
aa(lp53
I37
aI110
aI11
aa(lp54
I58
aI110
aI11
aa(lp55
I58
aI37
aI11
aa(lp56
I58
aI37
aI110
aa(lp57
I110
aI108
aI117
aa(lp58
I58
aI108
aI117
aa(lp59
I58
aI110
aI117
aa(lp60
I58
aI110
aI108
aa(lp61
I192
aI11
aI117
aa(lp62
I58
aI11
aI117
aa(lp63
I58
aI192
aI117
aa(lp64
I58
aI192
aI11
aa(lp65
I58
aI192
aI108
aa(lp66
I37
aI110
aI111
aa(lp67
I54
aI110
aI111
aa(lp68
I54
aI37
aI111
aa(lp69
I54
aI37
aI110
aa(lp70
I54
aI37
aI11
aa(lp71
I54
aI58
aI11
aa(lp72
I54
aI58
aI37
aa(lp73
I129
aI130
aI131
aa(lp74
I198
aI130
aI131
aa(lp75
I198
aI129
aI131
aa(lp76
I198
aI129
aI130
aa(lp77
I116
aI117
aI131
aa(lp78
I132
aI117
aI131
aa(lp79
I132
aI116
aI131
aa(lp80
I132
aI116
aI117
aa(lp81
I52
aI199
aI103
aa(lp82
I191
aI199
aI103
aa(lp83
I191
aI52
aI103
aa(lp84
I191
aI52
aI199
aa(lp85
I191
aI117
aI103
aa(lp86
I191
aI192
aI103
aa(lp87
I191
aI192
aI117
aa(lp88
I23
aI88
aI9
aa(lp89
I77
aI88
aI9
aa(lp90
I77
aI23
aI9
aa(lp91
I77
aI23
aI88
aa(lp92
I87
aI88
aI9
aa(lp93
I77
aI87
aI9
aa(lp94
I77
aI87
aI88
aa(lp95
I77
aI173
aI88
aa(lp96
I77
aI23
aI173
aa(lp97
I77
aI173
aI21
aa(lp98
I77
aI23
aI21
aa(lp99
I149
aI150
aI152
aa(lp100
I59
aI150
aI152
aa(lp101
I59
aI149
aI152
aa(lp102
I59
aI149
aI150
aa(lp103
I7
aI163
aI76
aa(lp104
I162
aI163
aI76
aa(lp105
I162
aI7
aI76
aa(lp106
I162
aI7
aI163
aa(lp107
I7
aI73
aI76
aa(lp108
I6
aI73
aI76
aa(lp109
I6
aI7
aI76
aa(lp110
I6
aI7
aI73
aa(lp111
I6
aI162
aI76
aa(lp112
I6
aI162
aI7
aa(lp113
I162
aI161
aI76
aa(lp114
I6
aI161
aI76
aa(lp115
I6
aI162
aI161
aa(lp116
I162
aI161
aI7
aa(lp117
I6
aI161
aI7
aa(lp118
I6
aI73
aI32
aa(lp119
I6
aI7
aI32
aa(lp120
I20
aI19
aI144
aa(lp121
I12
aI19
aI144
aa(lp122
I12
aI20
aI144
aa(lp123
I12
aI20
aI19
aa(lp124
I19
aI17
aI50
aa(lp125
I12
aI17
aI50
aa(lp126
I12
aI19
aI50
aa(lp127
I12
aI19
aI17
aa(lp128
I20
aI167
aI34
aa(lp129
I12
aI167
aI34
aa(lp130
I12
aI20
aI34
aa(lp131
I12
aI20
aI167
aa(lp132
I140
aI19
aI144
aa(lp133
I140
aI20
aI144
aa(lp134
I140
aI20
aI19
aa(lp135
I148
aI174
aI45
aa(lp136
I148
aI41
aI45
aa(lp137
I148
aI41
aI174
aa(lp138
I41
aI175
aI174
aa(lp139
I148
aI175
aI174
aa(lp140
I148
aI41
aI175
aa(lp141
I148
aI177
aI45
aa(lp142
I148
aI177
aI174
aa(lp143
I175
aI177
aI174
aa(lp144
I148
aI175
aI177
aa(lp145
I149
aI177
aI45
aa(lp146
I148
aI149
aI45
aa(lp147
I148
aI149
aI177
aa(lp148
I135
aI173
aI45
aa(lp149
I146
aI173
aI45
aa(lp150
I146
aI135
aI45
aa(lp151
I146
aI135
aI173
aa(lp152
I172
aI135
aI173
aa(lp153
I146
aI172
aI173
aa(lp154
I146
aI172
aI135
aa(lp155
I146
aI41
aI45
aa(lp156
I146
aI41
aI173
aa(lp157
I49
aI23
aI9
aa(lp158
I49
aI77
aI9
aa(lp159
I49
aI77
aI23
aa(lp160
I49
aI88
aI9
aa(lp161
I49
aI23
aI88
aa(lp162
I77
aI79
aI23
aa(lp163
I49
aI79
aI23
aa(lp164
I49
aI77
aI79
aa(lp165
I79
aI23
aI21
aa(lp166
I183
aI23
aI21
aa(lp167
I183
aI79
aI21
aa(lp168
I183
aI79
aI23
aa(lp169
I90
aI23
aI88
aa(lp170
I183
aI23
aI88
aa(lp171
I183
aI90
aI88
aa(lp172
I183
aI90
aI23
aa(lp173
I171
aI173
aI21
aa(lp174
I171
aI77
aI21
aa(lp175
I171
aI77
aI173
aa(lp176
I77
aI172
aI173
aa(lp177
I171
aI172
aI173
aa(lp178
I171
aI77
aI172
aa(lp179
I171
aI23
aI21
aa(lp180
I171
aI79
aI21
aa(lp181
I171
aI79
aI23
aa(lp182
I171
aI77
aI23
aa(lp183
I171
aI77
aI79
aa(lp184
I84
aI178
aI83
aa(lp185
I84
aI177
aI83
aa(lp186
I84
aI177
aI178
aa(lp187
I84
aI85
aI83
aa(lp188
I84
aI85
aI178
aa(lp189
I85
aI177
aI178
aa(lp190
I84
aI85
aI177
aa(lp191
I176
aI177
aI178
aa(lp192
I176
aI85
aI178
aa(lp193
I176
aI85
aI177
aa(lp194
I176
aI84
aI177
aa(lp195
I176
aI84
aI85
aa(lp196
I84
aI85
aI175
aa(lp197
I176
aI85
aI175
aa(lp198
I176
aI84
aI175
aa(lp199
I176
aI177
aI174
aa(lp200
I176
aI175
aI174
aa(lp201
I176
aI175
aI177
aa(lp202
I84
aI175
aI174
aa(lp203
I176
aI84
aI174
aa(lp204
I176
aI174
aI21
aa(lp205
I176
aI177
aI21
aa(lp206
I84
aI174
aI21
aa(lp207
I176
aI84
aI21
aa(lp208
I84
aI177
aI21
aa(lp209
I82
aI85
aI83
aa(lp210
I82
aI84
aI83
aa(lp211
I82
aI84
aI85
aa(lp212
I96
aI85
aI83
aa(lp213
I82
aI96
aI83
aa(lp214
I82
aI96
aI85
aa(lp215
I193
aI129
aI126
aa(lp216
I127
aI129
aI126
aa(lp217
I127
aI193
aI126
aa(lp218
I127
aI193
aI129
aa(lp219
I77
aI3
aI9
aa(lp220
I36
aI3
aI9
aa(lp221
I36
aI77
aI9
aa(lp222
I36
aI77
aI3
aa(lp223
I10
aI3
aI50
aa(lp224
I63
aI3
aI50
aa(lp225
I63
aI10
aI50
aa(lp226
I63
aI10
aI3
aa(lp227
I36
aI10
aI3
aa(lp228
I63
aI36
aI3
aa(lp229
I63
aI36
aI10
aa(lp230
I3
aI17
aI50
aa(lp231
I63
aI17
aI50
aa(lp232
I63
aI3
aI17
aa(lp233
I195
aI173
aI45
aa(lp234
I195
aI135
aI45
aa(lp235
I195
aI135
aI173
aa(lp236
I195
aI172
aI173
aa(lp237
I195
aI172
aI135
aa(lp238
I195
aI173
aI88
aa(lp239
I195
aI77
aI88
aa(lp240
I195
aI77
aI173
aa(lp241
I195
aI77
aI172
aa(lp242
I195
aI193
aI126
aa(lp243
I195
aI127
aI126
aa(lp244
I195
aI127
aI193
aa(lp245
I195
aI87
aI88
aa(lp246
I195
aI77
aI87
aa(lp247
I195
aI87
aI9
aa(lp248
I195
aI77
aI9
aa(lp249
I118
aI110
aI111
aa(lp250
I118
aI37
aI111
aa(lp251
I118
aI37
aI110
aa(lp252
I121
aI37
aI111
aa(lp253
I118
aI121
aI111
aa(lp254
I118
aI121
aI37
aa(lp255
I118
aI110
aI11
aa(lp256
I118
aI37
aI11
aa(lp257
I121
aI37
aI11
aa(lp258
I118
aI121
aI11
aa(lp259
I118
aI11
aI117
aa(lp260
I118
aI58
aI117
aa(lp261
I118
aI58
aI11
aa(lp262
I118
aI110
aI117
aa(lp263
I118
aI58
aI110
aa(lp264
I86
aI3
aI9
aa(lp265
I86
aI36
aI9
aa(lp266
I86
aI36
aI3
aa(lp267
I86
aI77
aI9
aa(lp268
I86
aI77
aI3
aa(lp269
I86
aI49
aI9
aa(lp270
I86
aI49
aI77
aa(lp271
I49
aI77
aI3
aa(lp272
I86
aI49
aI3
aa(lp273
I70
aI37
aI11
aa(lp274
I70
aI121
aI11
aa(lp275
I70
aI121
aI37
aa(lp276
I113
aI130
aI131
aa(lp277
I113
aI198
aI131
aa(lp278
I113
aI198
aI130
aa(lp279
I132
aI130
aI131
aa(lp280
I113
aI132
aI131
aa(lp281
I113
aI132
aI130
aa(lp282
I196
aI129
aI126
aa(lp283
I196
aI193
aI126
aa(lp284
I196
aI193
aI129
aa(lp285
I196
aI129
aI131
aa(lp286
I196
aI198
aI131
aa(lp287
I196
aI198
aI129
aa(lp288
I196
aI195
aI126
aa(lp289
I196
aI195
aI193
aa(lp290
I196
aI199
aI103
aa(lp291
I196
aI52
aI103
aa(lp292
I196
aI52
aI199
aa(lp293
I195
aI52
aI88
aa(lp294
I196
aI52
aI88
aa(lp295
I196
aI195
aI88
aa(lp296
I196
aI195
aI52
aa(lp297
I18
aI130
aI131
aa(lp298
I18
aI132
aI131
aa(lp299
I18
aI132
aI130
aa(lp300
I132
aI43
aI131
aa(lp301
I18
aI43
aI131
aa(lp302
I18
aI132
aI43
aa(lp303
I18
aI129
aI131
aa(lp304
I18
aI129
aI130
aa(lp305
I22
aI77
aI172
aa(lp306
I22
aI171
aI172
aa(lp307
I22
aI171
aI77
aa(lp308
I22
aI77
aI3
aa(lp309
I22
aI49
aI3
aa(lp310
I22
aI49
aI77
aa(lp311
I22
aI77
aI79
aa(lp312
I22
aI49
aI79
aa(lp313
I22
aI171
aI79
aa(lp314
I139
aI135
aI150
aa(lp315
I136
aI135
aI150
aa(lp316
I136
aI139
aI150
aa(lp317
I136
aI139
aI135
aa(lp318
I100
aI37
aI32
aa(lp319
I31
aI37
aI32
aa(lp320
I31
aI100
aI32
aa(lp321
I31
aI100
aI37
aa(lp322
I31
aI121
aI37
aa(lp323
I31
aI70
aI37
aa(lp324
I31
aI70
aI121
aa(lp325
I70
aI12
aI50
aa(lp326
I31
aI12
aI50
aa(lp327
I31
aI70
aI50
aa(lp328
I31
aI70
aI12
aa(lp329
I31
aI20
aI32
aa(lp330
I2
aI20
aI32
aa(lp331
I2
aI31
aI32
aa(lp332
I2
aI31
aI20
aa(lp333
I142
aI20
aI19
aa(lp334
I142
aI12
aI19
aa(lp335
I142
aI12
aI20
aa(lp336
I31
aI12
aI19
aa(lp337
I142
aI31
aI19
aa(lp338
I142
aI31
aI12
aa(lp339
I31
aI12
aI20
aa(lp340
I142
aI31
aI20
aa(lp341
I19
aI17
aI144
aa(lp342
I71
aI17
aI144
aa(lp343
I71
aI19
aI144
aa(lp344
I71
aI19
aI17
aa(lp345
I71
aI140
aI144
aa(lp346
I71
aI140
aI19
aa(lp347
I29
aI20
aI144
aa(lp348
I29
aI140
aI144
aa(lp349
I29
aI140
aI20
aa(lp350
I29
aI20
aI32
aa(lp351
I29
aI2
aI32
aa(lp352
I29
aI2
aI20
aa(lp353
I29
aI31
aI32
aa(lp354
I29
aI31
aI20
aa(lp355
I29
aI142
aI20
aa(lp356
I29
aI142
aI31
aa(lp357
I78
aI79
aI23
aa(lp358
I78
aI49
aI23
aa(lp359
I78
aI49
aI79
aa(lp360
I78
aI183
aI23
aa(lp361
I78
aI183
aI79
aa(lp362
I78
aI90
aI23
aa(lp363
I78
aI183
aI90
aa(lp364
I182
aI171
aI79
aa(lp365
I182
aI22
aI79
aa(lp366
I182
aI22
aI171
aa(lp367
I182
aI49
aI79
aa(lp368
I182
aI22
aI49
aa(lp369
I185
aI79
aI21
aa(lp370
I185
aI183
aI21
aa(lp371
I185
aI183
aI79
aa(lp372
I24
aI82
aI99
aa(lp373
I95
aI82
aI99
aa(lp374
I95
aI24
aI99
aa(lp375
I95
aI24
aI82
aa(lp376
I190
aI96
aI83
aa(lp377
I95
aI96
aI83
aa(lp378
I95
aI190
aI83
aa(lp379
I95
aI190
aI96
aa(lp380
I27
aI178
aI179
aa(lp381
I180
aI178
aI179
aa(lp382
I180
aI27
aI179
aa(lp383
I180
aI27
aI178
aa(lp384
I66
aI96
aI85
aa(lp385
I66
aI82
aI85
aa(lp386
I66
aI82
aI96
aa(lp387
I66
aI5
aI83
aa(lp388
I66
aI85
aI83
aa(lp389
I66
aI85
aI5
aa(lp390
I96
aI5
aI83
aa(lp391
I66
aI96
aI83
aa(lp392
I66
aI96
aI5
aa(lp393
I97
aI96
aI5
aa(lp394
I66
aI97
aI5
aa(lp395
I66
aI97
aI96
aa(lp396
I82
aI96
aI99
aa(lp397
I66
aI96
aI99
aa(lp398
I66
aI82
aI99
aa(lp399
I66
aI24
aI99
aa(lp400
I66
aI24
aI82
aa(lp401
I97
aI96
aI99
aa(lp402
I66
aI97
aI99
aa(lp403
I51
aI27
aI179
aa(lp404
I51
aI180
aI179
aa(lp405
I51
aI180
aI27
aa(lp406
I51
aI158
aI179
aa(lp407
I51
aI33
aI179
aa(lp408
I51
aI33
aI158
aa(lp409
I51
aI178
aI179
aa(lp410
I51
aI27
aI178
aa(lp411
I109
aI110
aI111
aa(lp412
I109
aI54
aI111
aa(lp413
I109
aI54
aI110
aa(lp414
I109
aI110
aI108
aa(lp415
I109
aI58
aI108
aa(lp416
I109
aI58
aI110
aa(lp417
I109
aI37
aI110
aa(lp418
I109
aI58
aI37
aa(lp419
I109
aI54
aI37
aa(lp420
I109
aI54
aI58
aa(lp421
I65
aI96
aI99
aa(lp422
I65
aI97
aI99
aa(lp423
I65
aI97
aI96
aa(lp424
I65
aI66
aI99
aa(lp425
I65
aI66
aI97
aa(lp426
I57
aI127
aI193
aa(lp427
I57
aI195
aI193
aa(lp428
I57
aI195
aI127
aa(lp429
I124
aI140
aI19
aa(lp430
I124
aI71
aI19
aa(lp431
I124
aI71
aI140
aa(lp432
I124
aI19
aI17
aa(lp433
I124
aI71
aI17
aa(lp434
I36
aI87
aI9
aa(lp435
I102
aI87
aI9
aa(lp436
I102
aI36
aI9
aa(lp437
I102
aI36
aI87
aa(lp438
I102
aI195
aI9
aa(lp439
I102
aI195
aI87
aa(lp440
I87
aI52
aI88
aa(lp441
I102
aI52
aI88
aa(lp442
I102
aI87
aI88
aa(lp443
I102
aI87
aI52
aa(lp444
I102
aI195
aI88
aa(lp445
I102
aI195
aI52
aa(lp446
I102
aI196
aI52
aa(lp447
I102
aI196
aI195
aa(lp448
I102
aI195
aI193
aa(lp449
I102
aI196
aI193
aa(lp450
I118
aI43
aI111
aa(lp451
I133
aI43
aI111
aa(lp452
I133
aI118
aI111
aa(lp453
I133
aI118
aI43
aa(lp454
I133
aI121
aI111
aa(lp455
I133
aI118
aI121
aa(lp456
I118
aI132
aI43
aa(lp457
I133
aI132
aI43
aa(lp458
I133
aI118
aI132
aa(lp459
I133
aI18
aI43
aa(lp460
I133
aI18
aI132
aa(lp461
I118
aI132
aI117
aa(lp462
I133
aI132
aI117
aa(lp463
I133
aI118
aI117
aa(lp464
I133
aI132
aI130
aa(lp465
I133
aI18
aI130
aa(lp466
I101
aI10
aI3
aa(lp467
I101
aI36
aI3
aa(lp468
I101
aI36
aI10
aa(lp469
I86
aI10
aI3
aa(lp470
I101
aI86
aI3
aa(lp471
I101
aI86
aI10
aa(lp472
I101
aI86
aI36
aa(lp473
I63
aI10
aI8
aa(lp474
I101
aI10
aI8
aa(lp475
I101
aI63
aI8
aa(lp476
I101
aI63
aI10
aa(lp477
I63
aI36
aI8
aa(lp478
I101
aI36
aI8
aa(lp479
I101
aI63
aI36
aa(lp480
I101
aI87
aI9
aa(lp481
I101
aI36
aI9
aa(lp482
I101
aI36
aI87
aa(lp483
I86
aI87
aI9
aa(lp484
I101
aI86
aI9
aa(lp485
I101
aI86
aI87
aa(lp486
I187
aI90
aI23
aa(lp487
I187
aI78
aI23
aa(lp488
I187
aI78
aI90
aa(lp489
I187
aI49
aI23
aa(lp490
I187
aI78
aI49
aa(lp491
I89
aI88
aI9
aa(lp492
I89
aI87
aI9
aa(lp493
I89
aI87
aI88
aa(lp494
I89
aI86
aI9
aa(lp495
I89
aI86
aI87
aa(lp496
I89
aI49
aI9
aa(lp497
I89
aI49
aI88
aa(lp498
I89
aI86
aI49
aa(lp499
I187
aI86
aI49
aa(lp500
I89
aI187
aI49
aa(lp501
I89
aI187
aI86
aa(lp502
I89
aI101
aI87
aa(lp503
I89
aI101
aI86
aa(lp504
I187
aI101
aI86
aa(lp505
I89
aI187
aI101
aa(lp506
I89
aI23
aI88
aa(lp507
I89
aI49
aI23
aa(lp508
I89
aI187
aI23
aa(lp509
I186
aI90
aI88
aa(lp510
I89
aI90
aI88
aa(lp511
I89
aI186
aI88
aa(lp512
I89
aI186
aI90
aa(lp513
I187
aI186
aI90
aa(lp514
I89
aI187
aI90
aa(lp515
I89
aI187
aI186
aa(lp516
I89
aI90
aI23
aa(lp517
I115
aI11
aI117
aa(lp518
I115
aI192
aI117
aa(lp519
I115
aI192
aI11
aa(lp520
I115
aI191
aI117
aa(lp521
I115
aI191
aI192
aa(lp522
I68
aI36
aI8
aa(lp523
I68
aI63
aI8
aa(lp524
I68
aI63
aI36
aa(lp525
I68
aI101
aI8
aa(lp526
I68
aI101
aI36
aa(lp527
I68
aI36
aI87
aa(lp528
I68
aI102
aI87
aa(lp529
I68
aI102
aI36
aa(lp530
I128
aI129
aI130
aa(lp531
I128
aI18
aI130
aa(lp532
I128
aI18
aI129
aa(lp533
I142
aI18
aI130
aa(lp534
I128
aI142
aI130
aa(lp535
I128
aI142
aI18
aa(lp536
I57
aI129
aI130
aa(lp537
I128
aI57
aI130
aa(lp538
I128
aI57
aI129
aa(lp539
I57
aI127
aI129
aa(lp540
I128
aI127
aI129
aa(lp541
I128
aI57
aI127
aa(lp542
I124
aI127
aI140
aa(lp543
I128
aI127
aI140
aa(lp544
I128
aI124
aI140
aa(lp545
I128
aI124
aI127
aa(lp546
I128
aI129
aI126
aa(lp547
I128
aI127
aI126
aa(lp548
I142
aI140
aI19
aa(lp549
I128
aI140
aI19
aa(lp550
I128
aI142
aI19
aa(lp551
I128
aI142
aI140
aa(lp552
I124
aI57
aI127
aa(lp553
I128
aI124
aI57
aa(lp554
I128
aI124
aI19
aa(lp555
I135
aI150
aI45
aa(lp556
I147
aI150
aI45
aa(lp557
I147
aI135
aI45
aa(lp558
I147
aI135
aI150
aa(lp559
I147
aI136
aI150
aa(lp560
I147
aI136
aI135
aa(lp561
I149
aI150
aI45
aa(lp562
I147
aI149
aI45
aa(lp563
I147
aI149
aI150
aa(lp564
I147
aI148
aI45
aa(lp565
I147
aI148
aI149
aa(lp566
I148
aI149
aI150
aa(lp567
I147
aI148
aI150
aa(lp568
I147
aI41
aI45
aa(lp569
I147
aI148
aI41
aa(lp570
I40
aI148
aI41
aa(lp571
I147
aI40
aI41
aa(lp572
I147
aI40
aI148
aa(lp573
I155
aI162
aI161
aa(lp574
I156
aI162
aI161
aa(lp575
I156
aI155
aI161
aa(lp576
I156
aI155
aI162
aa(lp577
I155
aI59
aI152
aa(lp578
I156
aI59
aI152
aa(lp579
I156
aI155
aI152
aa(lp580
I156
aI155
aI59
aa(lp581
I155
aI162
aI163
aa(lp582
I156
aI162
aI163
aa(lp583
I156
aI155
aI163
aa(lp584
I156
aI163
aI76
aa(lp585
I156
aI162
aI76
aa(lp586
I155
aI139
aI163
aa(lp587
I138
aI139
aI163
aa(lp588
I138
aI155
aI163
aa(lp589
I138
aI155
aI139
aa(lp590
I138
aI140
aI144
aa(lp591
I138
aI71
aI144
aa(lp592
I138
aI71
aI140
aa(lp593
I40
aI71
aI144
aa(lp594
I138
aI40
aI144
aa(lp595
I138
aI40
aI71
aa(lp596
I40
aI71
aI136
aa(lp597
I138
aI71
aI136
aa(lp598
I138
aI40
aI136
aa(lp599
I26
aI32
aI111
aa(lp600
I26
aI43
aI111
aa(lp601
I26
aI43
aI32
aa(lp602
I29
aI43
aI32
aa(lp603
I26
aI29
aI32
aa(lp604
I26
aI29
aI43
aa(lp605
I26
aI31
aI32
aa(lp606
I26
aI29
aI31
aa(lp607
I26
aI37
aI32
aa(lp608
I26
aI31
aI37
aa(lp609
I26
aI121
aI37
aa(lp610
I26
aI31
aI121
aa(lp611
I37
aI32
aI111
aa(lp612
I26
aI37
aI111
aa(lp613
I26
aI121
aI111
aa(lp614
I26
aI133
aI111
aa(lp615
I26
aI133
aI43
aa(lp616
I26
aI133
aI121
aa(lp617
I29
aI142
aI43
aa(lp618
I26
aI142
aI43
aa(lp619
I26
aI29
aI142
aa(lp620
I26
aI142
aI31
aa(lp621
I142
aI18
aI43
aa(lp622
I26
aI18
aI43
aa(lp623
I26
aI142
aI18
aa(lp624
I26
aI133
aI18
aa(lp625
I26
aI18
aI130
aa(lp626
I26
aI142
aI130
aa(lp627
I26
aI133
aI130
aa(lp628
I122
aI12
aI50
aa(lp629
I122
aI31
aI50
aa(lp630
I122
aI31
aI12
aa(lp631
I122
aI70
aI50
aa(lp632
I122
aI31
aI70
aa(lp633
I122
aI133
aI130
aa(lp634
I122
aI26
aI130
aa(lp635
I122
aI26
aI133
aa(lp636
I122
aI70
aI121
aa(lp637
I122
aI31
aI121
aa(lp638
I122
aI26
aI121
aa(lp639
I122
aI26
aI31
aa(lp640
I122
aI133
aI121
aa(lp641
I122
aI132
aI130
aa(lp642
I122
aI113
aI130
aa(lp643
I122
aI113
aI132
aa(lp644
I122
aI133
aI132
aa(lp645
I63
aI8
aI50
aa(lp646
I122
aI8
aI50
aa(lp647
I122
aI63
aI50
aa(lp648
I122
aI63
aI8
aa(lp649
I164
aI162
aI163
aa(lp650
I164
aI155
aI163
aa(lp651
I164
aI155
aI162
aa(lp652
I164
aI162
aI161
aa(lp653
I164
aI155
aI161
aa(lp654
I164
aI7
aI163
aa(lp655
I164
aI162
aI7
aa(lp656
I164
aI161
aI7
aa(lp657
I29
aI7
aI163
aa(lp658
I164
aI29
aI163
aa(lp659
I164
aI29
aI7
aa(lp660
I164
aI6
aI7
aa(lp661
I164
aI6
aI161
aa(lp662
I2
aI6
aI161
aa(lp663
I164
aI2
aI161
aa(lp664
I164
aI2
aI6
aa(lp665
I164
aI138
aI163
aa(lp666
I164
aI138
aI155
aa(lp667
I29
aI7
aI32
aa(lp668
I164
aI7
aI32
aa(lp669
I164
aI29
aI32
aa(lp670
I164
aI2
aI32
aa(lp671
I164
aI29
aI2
aa(lp672
I164
aI6
aI32
aa(lp673
I2
aI6
aI32
aa(lp674
I2
aI20
aI144
aa(lp675
I164
aI20
aI144
aa(lp676
I164
aI2
aI144
aa(lp677
I164
aI2
aI20
aa(lp678
I164
aI29
aI144
aa(lp679
I164
aI29
aI20
aa(lp680
I164
aI140
aI144
aa(lp681
I164
aI29
aI140
aa(lp682
I164
aI138
aI144
aa(lp683
I164
aI138
aI140
aa(lp684
I140
aI139
aI163
aa(lp685
I164
aI139
aI163
aa(lp686
I164
aI140
aI163
aa(lp687
I164
aI140
aI139
aa(lp688
I164
aI138
aI139
aa(lp689
I138
aI140
aI139
aa(lp690
I7
aI163
aI43
aa(lp691
I141
aI163
aI43
aa(lp692
I141
aI7
aI43
aa(lp693
I141
aI7
aI163
aa(lp694
I141
aI139
aI163
aa(lp695
I141
aI140
aI163
aa(lp696
I141
aI140
aI139
aa(lp697
I141
aI164
aI163
aa(lp698
I141
aI164
aI140
aa(lp699
I141
aI29
aI163
aa(lp700
I141
aI164
aI29
aa(lp701
I141
aI29
aI140
aa(lp702
I141
aI43
aI131
aa(lp703
I141
aI18
aI131
aa(lp704
I141
aI18
aI43
aa(lp705
I129
aI131
aI126
aa(lp706
I141
aI131
aI126
aa(lp707
I141
aI129
aI126
aa(lp708
I141
aI129
aI131
aa(lp709
I141
aI128
aI126
aa(lp710
I141
aI128
aI129
aa(lp711
I127
aI140
aI126
aa(lp712
I141
aI140
aI126
aa(lp713
I141
aI127
aI126
aa(lp714
I141
aI127
aI140
aa(lp715
I141
aI128
aI127
aa(lp716
I141
aI128
aI140
aa(lp717
I141
aI18
aI129
aa(lp718
I141
aI128
aI18
aa(lp719
I145
aI17
aI144
aa(lp720
I145
aI71
aI144
aa(lp721
I145
aI71
aI17
aa(lp722
I145
aI40
aI144
aa(lp723
I145
aI40
aI71
aa(lp724
I40
aI71
aI17
aa(lp725
I145
aI40
aI17
aa(lp726
I145
aI19
aI144
aa(lp727
I145
aI19
aI17
aa(lp728
I145
aI12
aI144
aa(lp729
I145
aI12
aI19
aa(lp730
I145
aI12
aI17
aa(lp731
I20
aI167
aI144
aa(lp732
I145
aI167
aI144
aa(lp733
I145
aI20
aI144
aa(lp734
I145
aI20
aI167
aa(lp735
I145
aI12
aI20
aa(lp736
I145
aI12
aI167
aa(lp737
I145
aI17
aI50
aa(lp738
I145
aI12
aI50
aa(lp739
I145
aI3
aI50
aa(lp740
I145
aI3
aI17
aa(lp741
I12
aI10
aI50
aa(lp742
I145
aI10
aI50
aa(lp743
I145
aI12
aI10
aa(lp744
I145
aI10
aI3
aa(lp745
I145
aI167
aI34
aa(lp746
I145
aI12
aI34
aa(lp747
I12
aI10
aI34
aa(lp748
I145
aI10
aI34
aa(lp749
I47
aI40
aI41
aa(lp750
I47
aI147
aI41
aa(lp751
I47
aI147
aI40
aa(lp752
I146
aI172
aI15
aa(lp753
I47
aI172
aI15
aa(lp754
I47
aI146
aI15
aa(lp755
I47
aI146
aI172
aa(lp756
I47
aI40
aI17
aa(lp757
I47
aI145
aI17
aa(lp758
I47
aI145
aI40
aa(lp759
I71
aI17
aI15
aa(lp760
I47
aI17
aI15
aa(lp761
I47
aI71
aI15
aa(lp762
I47
aI71
aI17
aa(lp763
I40
aI71
aI15
aa(lp764
I47
aI40
aI15
aa(lp765
I47
aI40
aI71
aa(lp766
I38
aI58
aI108
aa(lp767
I38
aI109
aI108
aa(lp768
I38
aI109
aI58
aa(lp769
I38
aI54
aI58
aa(lp770
I38
aI109
aI54
aa(lp771
I38
aI58
aI11
aa(lp772
I38
aI54
aI11
aa(lp773
I105
aI192
aI11
aa(lp774
I105
aI58
aI11
aa(lp775
I105
aI58
aI192
aa(lp776
I105
aI38
aI11
aa(lp777
I105
aI38
aI58
aa(lp778
I170
aI173
aI174
aa(lp779
I170
aI41
aI174
aa(lp780
I170
aI41
aI173
aa(lp781
I170
aI172
aI173
aa(lp782
I170
aI171
aI173
aa(lp783
I170
aI171
aI172
aa(lp784
I170
aI174
aI21
aa(lp785
I170
aI173
aI21
aa(lp786
I170
aI171
aI21
aa(lp787
I170
aI22
aI171
aa(lp788
I170
aI182
aI171
aa(lp789
I170
aI182
aI22
aa(lp790
I170
aI146
aI173
aa(lp791
I170
aI146
aI41
aa(lp792
I170
aI146
aI172
aa(lp793
I170
aI22
aI172
aa(lp794
I55
aI180
aI27
aa(lp795
I55
aI51
aI27
aa(lp796
I55
aI51
aI180
aa(lp797
I2
aI20
aI167
aa(lp798
I55
aI20
aI167
aa(lp799
I55
aI2
aI167
aa(lp800
I55
aI2
aI20
aa(lp801
I55
aI51
aI24
aa(lp802
I56
aI51
aI24
aa(lp803
I56
aI55
aI24
aa(lp804
I56
aI55
aI51
aa(lp805
I56
aI24
aI82
aa(lp806
I56
aI95
aI82
aa(lp807
I56
aI95
aI24
aa(lp808
I62
aI78
aI49
aa(lp809
I62
aI187
aI49
aa(lp810
I62
aI187
aI78
aa(lp811
I62
aI49
aI3
aa(lp812
I62
aI22
aI3
aa(lp813
I62
aI22
aI49
aa(lp814
I182
aI22
aI3
aa(lp815
I62
aI182
aI3
aa(lp816
I62
aI182
aI22
aa(lp817
I62
aI182
aI49
aa(lp818
I10
aI3
aI34
aa(lp819
I62
aI3
aI34
aa(lp820
I62
aI10
aI34
aa(lp821
I62
aI10
aI3
aa(lp822
I62
aI86
aI3
aa(lp823
I62
aI86
aI49
aa(lp824
I62
aI187
aI86
aa(lp825
I64
aI96
aI99
aa(lp826
I64
aI82
aI99
aa(lp827
I64
aI82
aI96
aa(lp828
I64
aI95
aI99
aa(lp829
I64
aI95
aI82
aa(lp830
I64
aI65
aI99
aa(lp831
I64
aI65
aI96
aa(lp832
I64
aI96
aI83
aa(lp833
I64
aI82
aI83
aa(lp834
I64
aI95
aI83
aa(lp835
I64
aI95
aI96
aa(lp836
I95
aI82
aI83
aa(lp837
I64
aI190
aI96
aa(lp838
I64
aI95
aI190
aa(lp839
I1
aI95
aI99
aa(lp840
I1
aI64
aI99
aa(lp841
I1
aI64
aI95
aa(lp842
I65
aI100
aI99
aa(lp843
I1
aI100
aI99
aa(lp844
I1
aI65
aI99
aa(lp845
I1
aI65
aI100
aa(lp846
I1
aI64
aI65
aa(lp847
I93
aI183
aI190
aa(lp848
I188
aI183
aI190
aa(lp849
I188
aI93
aI190
aa(lp850
I188
aI93
aI183
aa(lp851
I188
aI183
aI90
aa(lp852
I188
aI78
aI90
aa(lp853
I188
aI78
aI183
aa(lp854
I93
aI183
aI90
aa(lp855
I188
aI93
aI90
aa(lp856
I188
aI187
aI90
aa(lp857
I188
aI187
aI78
aa(lp858
I93
aI187
aI90
aa(lp859
I188
aI93
aI187
aa(lp860
I188
aI62
aI78
aa(lp861
I188
aI62
aI187
aa(lp862
I184
aI78
aI183
aa(lp863
I184
aI188
aI183
aa(lp864
I184
aI188
aI78
aa(lp865
I184
aI183
aI79
aa(lp866
I184
aI185
aI79
aa(lp867
I184
aI185
aI183
aa(lp868
I185
aI82
aI83
aa(lp869
I184
aI82
aI83
aa(lp870
I184
aI185
aI83
aa(lp871
I184
aI185
aI82
aa(lp872
I184
aI95
aI83
aa(lp873
I184
aI95
aI82
aa(lp874
I184
aI183
aI190
aa(lp875
I184
aI188
aI190
aa(lp876
I188
aI95
aI190
aa(lp877
I184
aI95
aI190
aa(lp878
I184
aI188
aI95
aa(lp879
I183
aI190
aI83
aa(lp880
I184
aI190
aI83
aa(lp881
I184
aI183
aI83
aa(lp882
I185
aI183
aI83
aa(lp883
I180
aI158
aI179
aa(lp884
I157
aI158
aI179
aa(lp885
I157
aI180
aI179
aa(lp886
I157
aI180
aI158
aa(lp887
I157
aI177
aI76
aa(lp888
I157
aI158
aI76
aa(lp889
I157
aI158
aI177
aa(lp890
I157
aI177
aI179
aa(lp891
I158
aI73
aI76
aa(lp892
I157
aI73
aI76
aa(lp893
I157
aI158
aI73
aa(lp894
I157
aI152
aI76
aa(lp895
I157
aI177
aI152
aa(lp896
I156
aI152
aI76
aa(lp897
I157
aI156
aI76
aa(lp898
I157
aI156
aI152
aa(lp899
I157
aI6
aI76
aa(lp900
I157
aI6
aI73
aa(lp901
I157
aI161
aI76
aa(lp902
I157
aI6
aI161
aa(lp903
I180
aI6
aI161
aa(lp904
I157
aI180
aI161
aa(lp905
I157
aI180
aI6
aa(lp906
I157
aI162
aI76
aa(lp907
I157
aI162
aI161
aa(lp908
I157
aI156
aI162
aa(lp909
I157
aI156
aI161
aa(lp910
I180
aI59
aI161
aa(lp911
I157
aI59
aI161
aa(lp912
I157
aI180
aI59
aa(lp913
I157
aI59
aI152
aa(lp914
I157
aI156
aI59
aa(lp915
I155
aI59
aI161
aa(lp916
I157
aI155
aI161
aa(lp917
I157
aI155
aI59
aa(lp918
I157
aI156
aI155
aa(lp919
I16
aI178
aI179
aa(lp920
I16
aI177
aI179
aa(lp921
I16
aI177
aI178
aa(lp922
I16
aI180
aI179
aa(lp923
I16
aI180
aI178
aa(lp924
I16
aI27
aI178
aa(lp925
I16
aI180
aI27
aa(lp926
I16
aI177
aI152
aa(lp927
I16
aI157
aI152
aa(lp928
I16
aI157
aI177
aa(lp929
I16
aI157
aI179
aa(lp930
I16
aI157
aI180
aa(lp931
I27
aI175
aI178
aa(lp932
I16
aI175
aI178
aa(lp933
I16
aI27
aI175
aa(lp934
I16
aI59
aI152
aa(lp935
I16
aI157
aI59
aa(lp936
I16
aI180
aI59
aa(lp937
I149
aI177
aI152
aa(lp938
I16
aI149
aI152
aa(lp939
I16
aI149
aI177
aa(lp940
I16
aI59
aI149
aa(lp941
I16
aI176
aI178
aa(lp942
I16
aI176
aI177
aa(lp943
I176
aI175
aI178
aa(lp944
I16
aI176
aI175
aa(lp945
I16
aI175
aI177
aa(lp946
I16
aI148
aI177
aa(lp947
I16
aI148
aI175
aa(lp948
I27
aI148
aI175
aa(lp949
I16
aI27
aI148
aa(lp950
I16
aI148
aI149
aa(lp951
I180
aI27
aI59
aa(lp952
I16
aI27
aI59
aa(lp953
I148
aI59
aI149
aa(lp954
I16
aI148
aI59
aa(lp955
I27
aI148
aI59
aa(lp956
I98
aI66
aI99
aa(lp957
I98
aI65
aI99
aa(lp958
I98
aI65
aI66
aa(lp959
I98
aI32
aI111
aa(lp960
I98
aI37
aI111
aa(lp961
I98
aI37
aI32
aa(lp962
I100
aI37
aI111
aa(lp963
I98
aI100
aI111
aa(lp964
I98
aI100
aI37
aa(lp965
I98
aI100
aI32
aa(lp966
I66
aI33
aI5
aa(lp967
I98
aI33
aI5
aa(lp968
I98
aI66
aI5
aa(lp969
I98
aI66
aI33
aa(lp970
I98
aI66
aI97
aa(lp971
I98
aI65
aI97
aa(lp972
I73
aI5
aI111
aa(lp973
I98
aI5
aI111
aa(lp974
I98
aI73
aI111
aa(lp975
I98
aI73
aI5
aa(lp976
I97
aI5
aI111
aa(lp977
I98
aI97
aI111
aa(lp978
I98
aI97
aI5
aa(lp979
I113
aI198
aI199
aa(lp980
I112
aI198
aI199
aa(lp981
I112
aI113
aI199
aa(lp982
I112
aI113
aI198
aa(lp983
I112
aI52
aI199
aa(lp984
I112
aI196
aI199
aa(lp985
I112
aI196
aI52
aa(lp986
I112
aI102
aI52
aa(lp987
I112
aI102
aI196
aa(lp988
I68
aI102
aI52
aa(lp989
I112
aI68
aI52
aa(lp990
I112
aI68
aI102
aa(lp991
I197
aI198
aI129
aa(lp992
I197
aI196
aI129
aa(lp993
I197
aI196
aI198
aa(lp994
I197
aI129
aI130
aa(lp995
I197
aI198
aI130
aa(lp996
I197
aI57
aI130
aa(lp997
I197
aI57
aI129
aa(lp998
I197
aI193
aI129
aa(lp999
I197
aI196
aI193
aa(lp1000
I197
aI127
aI129
aa(lp1001
I197
aI127
aI193
aa(lp1002
I197
aI57
aI127
aa(lp1003
I197
aI57
aI193
aa(lp1004
I112
aI196
aI193
aa(lp1005
I197
aI112
aI193
aa(lp1006
I197
aI112
aI196
aa(lp1007
I196
aI198
aI199
aa(lp1008
I197
aI198
aI199
aa(lp1009
I197
aI196
aI199
aa(lp1010
I197
aI112
aI199
aa(lp1011
I197
aI112
aI198
aa(lp1012
I197
aI113
aI130
aa(lp1013
I197
aI113
aI198
aa(lp1014
I197
aI112
aI113
aa(lp1015
I92
aI113
aI130
aa(lp1016
I92
aI122
aI130
aa(lp1017
I92
aI122
aI113
aa(lp1018
I92
aI197
aI130
aa(lp1019
I92
aI197
aI113
aa(lp1020
I92
aI57
aI130
aa(lp1021
I92
aI197
aI57
aa(lp1022
I92
aI63
aI50
aa(lp1023
I92
aI122
aI50
aa(lp1024
I92
aI122
aI63
aa(lp1025
I92
aI63
aI8
aa(lp1026
I92
aI122
aI8
aa(lp1027
I122
aI113
aI8
aa(lp1028
I92
aI113
aI8
aa(lp1029
I92
aI112
aI113
aa(lp1030
I92
aI197
aI112
aa(lp1031
I92
aI68
aI8
aa(lp1032
I92
aI68
aI63
aa(lp1033
I68
aI113
aI8
aa(lp1034
I92
aI68
aI113
aa(lp1035
I112
aI68
aI113
aa(lp1036
I92
aI112
aI68
aa(lp1037
I92
aI68
aI102
aa(lp1038
I92
aI112
aI102
aa(lp1039
I92
aI63
aI36
aa(lp1040
I92
aI68
aI36
aa(lp1041
I92
aI102
aI36
aa(lp1042
I48
aI17
aI15
aa(lp1043
I48
aI71
aI15
aa(lp1044
I48
aI71
aI17
aa(lp1045
I124
aI71
aI15
aa(lp1046
I48
aI124
aI15
aa(lp1047
I48
aI124
aI71
aa(lp1048
I48
aI124
aI17
aa(lp1049
I48
aI195
aI127
aa(lp1050
I48
aI57
aI127
aa(lp1051
I48
aI57
aI195
aa(lp1052
I48
aI124
aI127
aa(lp1053
I48
aI124
aI57
aa(lp1054
I48
aI47
aI15
aa(lp1055
I48
aI47
aI17
aa(lp1056
I48
aI172
aI15
aa(lp1057
I48
aI47
aI172
aa(lp1058
I48
aI77
aI172
aa(lp1059
I48
aI22
aI172
aa(lp1060
I48
aI22
aI77
aa(lp1061
I47
aI22
aI172
aa(lp1062
I48
aI47
aI22
aa(lp1063
I195
aI172
aI15
aa(lp1064
I48
aI195
aI15
aa(lp1065
I48
aI195
aI172
aa(lp1066
I48
aI195
aI77
aa(lp1067
I139
aI135
aI126
aa(lp1068
I137
aI135
aI126
aa(lp1069
I137
aI139
aI126
aa(lp1070
I137
aI139
aI135
aa(lp1071
I137
aI136
aI135
aa(lp1072
I137
aI136
aI139
aa(lp1073
I138
aI136
aI139
aa(lp1074
I137
aI138
aI139
aa(lp1075
I137
aI138
aI136
aa(lp1076
I137
aI71
aI136
aa(lp1077
I137
aI138
aI71
aa(lp1078
I137
aI140
aI139
aa(lp1079
I137
aI138
aI140
aa(lp1080
I137
aI71
aI140
aa(lp1081
I137
aI124
aI140
aa(lp1082
I137
aI124
aI71
aa(lp1083
I141
aI139
aI126
aa(lp1084
I137
aI141
aI126
aa(lp1085
I137
aI141
aI139
aa(lp1086
I137
aI140
aI126
aa(lp1087
I137
aI141
aI140
aa(lp1088
I137
aI127
aI126
aa(lp1089
I137
aI127
aI140
aa(lp1090
I200
aI68
aI113
aa(lp1091
I200
aI112
aI113
aa(lp1092
I200
aI112
aI68
aa(lp1093
I115
aI113
aI8
aa(lp1094
I200
aI113
aI8
aa(lp1095
I200
aI115
aI8
aa(lp1096
I200
aI115
aI113
aa(lp1097
I200
aI68
aI8
aa(lp1098
I68
aI191
aI52
aa(lp1099
I200
aI191
aI52
aa(lp1100
I200
aI68
aI52
aa(lp1101
I200
aI68
aI191
aa(lp1102
I200
aI112
aI52
aa(lp1103
I200
aI191
aI117
aa(lp1104
I200
aI115
aI117
aa(lp1105
I200
aI115
aI191
aa(lp1106
I200
aI52
aI199
aa(lp1107
I200
aI191
aI199
aa(lp1108
I200
aI112
aI199
aa(lp1109
I200
aI117
aI103
aa(lp1110
I200
aI191
aI103
aa(lp1111
I200
aI199
aI103
aa(lp1112
I104
aI36
aI87
aa(lp1113
I104
aI101
aI87
aa(lp1114
I104
aI101
aI36
aa(lp1115
I104
aI68
aI87
aa(lp1116
I104
aI68
aI36
aa(lp1117
I104
aI68
aI101
aa(lp1118
I104
aI89
aI87
aa(lp1119
I104
aI89
aI101
aa(lp1120
I104
aI87
aI88
aa(lp1121
I104
aI89
aI88
aa(lp1122
I52
aI88
aI103
aa(lp1123
I104
aI88
aI103
aa(lp1124
I104
aI52
aI103
aa(lp1125
I104
aI52
aI88
aa(lp1126
I104
aI87
aI52
aa(lp1127
I104
aI191
aI103
aa(lp1128
I104
aI191
aI52
aa(lp1129
I104
aI68
aI52
aa(lp1130
I104
aI68
aI191
aa(lp1131
I104
aI102
aI52
aa(lp1132
I104
aI102
aI87
aa(lp1133
I104
aI68
aI102
aa(lp1134
I75
aI124
aI19
aa(lp1135
I75
aI128
aI19
aa(lp1136
I75
aI128
aI124
aa(lp1137
I75
aI124
aI57
aa(lp1138
I75
aI128
aI57
aa(lp1139
I75
aI48
aI57
aa(lp1140
I75
aI48
aI124
aa(lp1141
I75
aI19
aI17
aa(lp1142
I75
aI124
aI17
aa(lp1143
I75
aI48
aI17
aa(lp1144
I75
aI17
aI50
aa(lp1145
I75
aI63
aI50
aa(lp1146
I75
aI63
aI17
aa(lp1147
I75
aI3
aI17
aa(lp1148
I75
aI63
aI3
aa(lp1149
I75
aI36
aI3
aa(lp1150
I75
aI63
aI36
aa(lp1151
I22
aI3
aI17
aa(lp1152
I75
aI22
aI17
aa(lp1153
I75
aI22
aI3
aa(lp1154
I47
aI22
aI17
aa(lp1155
I75
aI47
aI17
aa(lp1156
I75
aI47
aI22
aa(lp1157
I75
aI48
aI47
aa(lp1158
I75
aI48
aI22
aa(lp1159
I75
aI77
aI3
aa(lp1160
I75
aI36
aI77
aa(lp1161
I75
aI22
aI77
aa(lp1162
I75
aI48
aI77
aa(lp1163
I134
aI135
aI45
aa(lp1164
I134
aI146
aI45
aa(lp1165
I134
aI146
aI135
aa(lp1166
I134
aI147
aI45
aa(lp1167
I134
aI147
aI135
aa(lp1168
I134
aI41
aI45
aa(lp1169
I134
aI146
aI41
aa(lp1170
I134
aI147
aI41
aa(lp1171
I134
aI136
aI135
aa(lp1172
I134
aI147
aI136
aa(lp1173
I47
aI146
aI41
aa(lp1174
I134
aI47
aI41
aa(lp1175
I134
aI47
aI146
aa(lp1176
I134
aI47
aI147
aa(lp1177
I134
aI146
aI15
aa(lp1178
I134
aI47
aI15
aa(lp1179
I147
aI40
aI136
aa(lp1180
I134
aI40
aI136
aa(lp1181
I134
aI147
aI40
aa(lp1182
I134
aI47
aI40
aa(lp1183
I195
aI135
aI15
aa(lp1184
I134
aI135
aI15
aa(lp1185
I134
aI195
aI15
aa(lp1186
I134
aI195
aI135
aa(lp1187
I134
aI137
aI135
aa(lp1188
I134
aI137
aI136
aa(lp1189
I134
aI40
aI15
aa(lp1190
I134
aI172
aI15
aa(lp1191
I134
aI146
aI172
aa(lp1192
I134
aI195
aI172
aa(lp1193
I134
aI172
aI135
aa(lp1194
I137
aI71
aI15
aa(lp1195
I134
aI71
aI15
aa(lp1196
I134
aI137
aI15
aa(lp1197
I134
aI137
aI71
aa(lp1198
I134
aI71
aI136
aa(lp1199
I134
aI40
aI71
aa(lp1200
I151
aI40
aI136
aa(lp1201
I151
aI138
aI136
aa(lp1202
I151
aI138
aI40
aa(lp1203
I151
aI150
aI152
aa(lp1204
I151
aI59
aI152
aa(lp1205
I151
aI59
aI150
aa(lp1206
I151
aI40
aI148
aa(lp1207
I151
aI147
aI148
aa(lp1208
I151
aI147
aI40
aa(lp1209
I151
aI147
aI136
aa(lp1210
I151
aI149
aI150
aa(lp1211
I151
aI59
aI149
aa(lp1212
I151
aI148
aI150
aa(lp1213
I151
aI148
aI149
aa(lp1214
I151
aI148
aI59
aa(lp1215
I151
aI147
aI150
aa(lp1216
I151
aI136
aI150
aa(lp1217
I154
aI139
aI150
aa(lp1218
I154
aI136
aI150
aa(lp1219
I154
aI136
aI139
aa(lp1220
I154
aI138
aI139
aa(lp1221
I154
aI138
aI136
aa(lp1222
I154
aI151
aI150
aa(lp1223
I154
aI151
aI136
aa(lp1224
I154
aI151
aI138
aa(lp1225
I154
aI150
aI152
aa(lp1226
I154
aI151
aI152
aa(lp1227
I154
aI155
aI139
aa(lp1228
I154
aI138
aI155
aa(lp1229
I151
aI138
aI155
aa(lp1230
I154
aI151
aI155
aa(lp1231
I154
aI139
aI163
aa(lp1232
I154
aI155
aI163
aa(lp1233
I154
aI59
aI152
aa(lp1234
I154
aI155
aI152
aa(lp1235
I154
aI155
aI59
aa(lp1236
I154
aI151
aI59
aa(lp1237
I151
aI155
aI59
aa(lp1238
I154
aI156
aI152
aa(lp1239
I154
aI156
aI155
aa(lp1240
I154
aI156
aI163
aa(lp1241
I119
aI121
aI11
aa(lp1242
I119
aI70
aI11
aa(lp1243
I119
aI70
aI121
aa(lp1244
I119
aI11
aI117
aa(lp1245
I119
aI118
aI117
aa(lp1246
I119
aI118
aI11
aa(lp1247
I115
aI113
aI116
aa(lp1248
I119
aI113
aI116
aa(lp1249
I119
aI115
aI116
aa(lp1250
I119
aI115
aI113
aa(lp1251
I122
aI70
aI8
aa(lp1252
I119
aI70
aI8
aa(lp1253
I119
aI122
aI8
aa(lp1254
I119
aI122
aI70
aa(lp1255
I119
aI115
aI117
aa(lp1256
I119
aI115
aI11
aa(lp1257
I115
aI116
aI117
aa(lp1258
I119
aI116
aI117
aa(lp1259
I119
aI113
aI8
aa(lp1260
I119
aI115
aI8
aa(lp1261
I119
aI122
aI113
aa(lp1262
I119
aI192
aI11
aa(lp1263
I119
aI115
aI192
aa(lp1264
I105
aI8
aI11
aa(lp1265
I119
aI8
aI11
aa(lp1266
I119
aI105
aI11
aa(lp1267
I119
aI105
aI8
aa(lp1268
I39
aI7
aI163
aa(lp1269
I39
aI29
aI163
aa(lp1270
I39
aI29
aI7
aa(lp1271
I39
aI141
aI163
aa(lp1272
I39
aI141
aI7
aa(lp1273
I39
aI141
aI29
aa(lp1274
I39
aI7
aI43
aa(lp1275
I39
aI141
aI43
aa(lp1276
I39
aI43
aI32
aa(lp1277
I39
aI7
aI32
aa(lp1278
I39
aI29
aI32
aa(lp1279
I39
aI29
aI43
aa(lp1280
I39
aI142
aI43
aa(lp1281
I39
aI29
aI142
aa(lp1282
I39
aI18
aI43
aa(lp1283
I39
aI142
aI18
aa(lp1284
I39
aI141
aI18
aa(lp1285
I39
aI29
aI140
aa(lp1286
I39
aI141
aI140
aa(lp1287
I39
aI128
aI18
aa(lp1288
I39
aI128
aI142
aa(lp1289
I39
aI141
aI128
aa(lp1290
I39
aI140
aI20
aa(lp1291
I39
aI29
aI20
aa(lp1292
I39
aI142
aI20
aa(lp1293
I39
aI142
aI140
aa(lp1294
I39
aI128
aI140
aa(lp1295
I39
aI20
aI19
aa(lp1296
I39
aI140
aI19
aa(lp1297
I39
aI142
aI19
aa(lp1298
I153
aI65
aI96
aa(lp1299
I153
aI64
aI96
aa(lp1300
I153
aI64
aI65
aa(lp1301
I153
aI97
aI96
aa(lp1302
I153
aI65
aI97
aa(lp1303
I100
aI54
aI37
aa(lp1304
I13
aI54
aI37
aa(lp1305
I13
aI100
aI37
aa(lp1306
I13
aI100
aI54
aa(lp1307
I13
aI31
aI37
aa(lp1308
I13
aI31
aI100
aa(lp1309
I13
aI70
aI37
aa(lp1310
I13
aI31
aI70
aa(lp1311
I91
aI187
aI186
aa(lp1312
I91
aI89
aI186
aa(lp1313
I91
aI89
aI187
aa(lp1314
I91
aI186
aI90
aa(lp1315
I91
aI187
aI90
aa(lp1316
I93
aI186
aI90
aa(lp1317
I91
aI93
aI90
aa(lp1318
I91
aI93
aI186
aa(lp1319
I91
aI93
aI187
aa(lp1320
I91
aI188
aI187
aa(lp1321
I91
aI188
aI93
aa(lp1322
I106
aI192
aI108
aa(lp1323
I106
aI58
aI108
aa(lp1324
I106
aI58
aI192
aa(lp1325
I105
aI58
aI108
aa(lp1326
I106
aI105
aI108
aa(lp1327
I106
aI105
aI58
aa(lp1328
I106
aI105
aI192
aa(lp1329
I106
aI108
aI103
aa(lp1330
I106
aI192
aI103
aa(lp1331
I72
aI38
aI11
aa(lp1332
I72
aI105
aI11
aa(lp1333
I72
aI105
aI38
aa(lp1334
I72
aI54
aI11
aa(lp1335
I72
aI38
aI54
aa(lp1336
I72
aI37
aI11
aa(lp1337
I72
aI54
aI37
aa(lp1338
I72
aI70
aI11
aa(lp1339
I72
aI70
aI37
aa(lp1340
I13
aI38
aI54
aa(lp1341
I72
aI13
aI54
aa(lp1342
I72
aI13
aI38
aa(lp1343
I105
aI38
aI4
aa(lp1344
I72
aI38
aI4
aa(lp1345
I72
aI105
aI4
aa(lp1346
I72
aI13
aI37
aa(lp1347
I72
aI13
aI70
aa(lp1348
I81
aI175
aI174
aa(lp1349
I81
aI84
aI174
aa(lp1350
I81
aI84
aI175
aa(lp1351
I170
aI175
aI174
aa(lp1352
I81
aI170
aI174
aa(lp1353
I81
aI170
aI175
aa(lp1354
I81
aI174
aI21
aa(lp1355
I81
aI84
aI21
aa(lp1356
I81
aI170
aI21
aa(lp1357
I81
aI85
aI175
aa(lp1358
I81
aI84
aI85
aa(lp1359
I185
aI84
aI21
aa(lp1360
I81
aI185
aI21
aa(lp1361
I81
aI185
aI84
aa(lp1362
I81
aI79
aI21
aa(lp1363
I81
aI185
aI79
aa(lp1364
I81
aI82
aI85
aa(lp1365
I81
aI82
aI84
aa(lp1366
I56
aI82
aI85
aa(lp1367
I81
aI56
aI85
aa(lp1368
I81
aI56
aI82
aa(lp1369
I81
aI171
aI21
aa(lp1370
I81
aI171
aI79
aa(lp1371
I81
aI170
aI171
aa(lp1372
I81
aI182
aI79
aa(lp1373
I81
aI182
aI171
aa(lp1374
I81
aI170
aI182
aa(lp1375
I81
aI84
aI83
aa(lp1376
I81
aI82
aI83
aa(lp1377
I185
aI84
aI83
aa(lp1378
I81
aI185
aI83
aa(lp1379
I81
aI185
aI82
aa(lp1380
I81
aI184
aI82
aa(lp1381
I81
aI184
aI185
aa(lp1382
I169
aI146
aI172
aa(lp1383
I169
aI47
aI172
aa(lp1384
I169
aI47
aI146
aa(lp1385
I169
aI170
aI172
aa(lp1386
I169
aI170
aI146
aa(lp1387
I169
aI22
aI172
aa(lp1388
I169
aI47
aI22
aa(lp1389
I169
aI170
aI22
aa(lp1390
I169
aI146
aI41
aa(lp1391
I169
aI47
aI41
aa(lp1392
I169
aI170
aI41
aa(lp1393
I169
aI182
aI22
aa(lp1394
I169
aI170
aI182
aa(lp1395
I169
aI145
aI40
aa(lp1396
I169
aI47
aI40
aa(lp1397
I169
aI47
aI145
aa(lp1398
I169
aI22
aI3
aa(lp1399
I169
aI182
aI3
aa(lp1400
I169
aI22
aI17
aa(lp1401
I169
aI47
aI17
aa(lp1402
I169
aI145
aI17
aa(lp1403
I169
aI3
aI17
aa(lp1404
I169
aI145
aI3
aa(lp1405
I166
aI6
aI161
aa(lp1406
I166
aI180
aI161
aa(lp1407
I166
aI180
aI6
aa(lp1408
I166
aI2
aI161
aa(lp1409
I166
aI2
aI6
aa(lp1410
I166
aI2
aI167
aa(lp1411
I166
aI55
aI167
aa(lp1412
I166
aI55
aI2
aa(lp1413
I55
aI27
aI167
aa(lp1414
I166
aI27
aI167
aa(lp1415
I166
aI55
aI27
aa(lp1416
I166
aI180
aI27
aa(lp1417
I166
aI55
aI180
aa(lp1418
I166
aI59
aI161
aa(lp1419
I166
aI180
aI59
aa(lp1420
I166
aI27
aI59
aa(lp1421
I166
aI155
aI161
aa(lp1422
I166
aI155
aI59
aa(lp1423
I166
aI164
aI161
aa(lp1424
I166
aI164
aI155
aa(lp1425
I166
aI164
aI2
aa(lp1426
I166
aI151
aI59
aa(lp1427
I166
aI151
aI155
aa(lp1428
I166
aI2
aI144
aa(lp1429
I166
aI164
aI144
aa(lp1430
I166
aI167
aI144
aa(lp1431
I166
aI20
aI144
aa(lp1432
I166
aI20
aI167
aa(lp1433
I166
aI2
aI20
aa(lp1434
I166
aI138
aI144
aa(lp1435
I166
aI164
aI138
aa(lp1436
I166
aI138
aI155
aa(lp1437
I166
aI151
aI138
aa(lp1438
I166
aI145
aI144
aa(lp1439
I166
aI145
aI167
aa(lp1440
I166
aI40
aI144
aa(lp1441
I166
aI145
aI40
aa(lp1442
I145
aI40
aI167
aa(lp1443
I166
aI40
aI167
aa(lp1444
I166
aI138
aI40
aa(lp1445
I166
aI151
aI40
aa(lp1446
I35
aI82
aI85
aa(lp1447
I35
aI56
aI85
aa(lp1448
I35
aI56
aI82
aa(lp1449
I35
aI24
aI82
aa(lp1450
I35
aI56
aI24
aa(lp1451
I35
aI66
aI85
aa(lp1452
I35
aI66
aI82
aa(lp1453
I35
aI66
aI24
aa(lp1454
I35
aI51
aI24
aa(lp1455
I35
aI56
aI51
aa(lp1456
I66
aI24
aI33
aa(lp1457
I35
aI24
aI33
aa(lp1458
I35
aI66
aI33
aa(lp1459
I51
aI24
aI33
aa(lp1460
I35
aI51
aI33
aa(lp1461
I35
aI85
aI5
aa(lp1462
I35
aI66
aI5
aa(lp1463
I35
aI33
aI5
aa(lp1464
I35
aI33
aI179
aa(lp1465
I35
aI51
aI179
aa(lp1466
I35
aI27
aI178
aa(lp1467
I35
aI51
aI178
aa(lp1468
I35
aI51
aI27
aa(lp1469
I35
aI5
aI179
aa(lp1470
I35
aI85
aI179
aa(lp1471
I35
aI178
aI179
aa(lp1472
I35
aI85
aI178
aa(lp1473
I35
aI175
aI178
aa(lp1474
I35
aI27
aI175
aa(lp1475
I35
aI85
aI175
aa(lp1476
I35
aI81
aI175
aa(lp1477
I35
aI81
aI85
aa(lp1478
I35
aI81
aI56
aa(lp1479
I35
aI176
aI178
aa(lp1480
I35
aI176
aI175
aa(lp1481
I35
aI176
aI85
aa(lp1482
I60
aI170
aI182
aa(lp1483
I60
aI169
aI182
aa(lp1484
I60
aI169
aI170
aa(lp1485
I56
aI182
aI34
aa(lp1486
I60
aI182
aI34
aa(lp1487
I60
aI56
aI34
aa(lp1488
I60
aI56
aI182
aa(lp1489
I55
aI167
aI34
aa(lp1490
I60
aI167
aI34
aa(lp1491
I60
aI55
aI34
aa(lp1492
I60
aI55
aI167
aa(lp1493
I169
aI145
aI167
aa(lp1494
I60
aI145
aI167
aa(lp1495
I60
aI169
aI167
aa(lp1496
I60
aI169
aI145
aa(lp1497
I60
aI145
aI34
aa(lp1498
I60
aI182
aI3
aa(lp1499
I60
aI169
aI3
aa(lp1500
I60
aI145
aI3
aa(lp1501
I60
aI3
aI34
aa(lp1502
I60
aI62
aI34
aa(lp1503
I60
aI62
aI3
aa(lp1504
I62
aI182
aI34
aa(lp1505
I60
aI62
aI182
aa(lp1506
I60
aI10
aI34
aa(lp1507
I60
aI10
aI3
aa(lp1508
I60
aI145
aI10
aa(lp1509
I25
aI95
aI24
aa(lp1510
I25
aI56
aI24
aa(lp1511
I25
aI56
aI95
aa(lp1512
I25
aI24
aI99
aa(lp1513
I25
aI95
aI99
aa(lp1514
I25
aI1
aI99
aa(lp1515
I25
aI1
aI95
aa(lp1516
I25
aI20
aI34
aa(lp1517
I25
aI12
aI34
aa(lp1518
I25
aI12
aI20
aa(lp1519
I25
aI167
aI34
aa(lp1520
I25
aI20
aI167
aa(lp1521
I25
aI55
aI34
aa(lp1522
I25
aI55
aI167
aa(lp1523
I25
aI55
aI20
aa(lp1524
I61
aI73
aI5
aa(lp1525
I61
aI33
aI5
aa(lp1526
I61
aI33
aI73
aa(lp1527
I61
aI98
aI5
aa(lp1528
I61
aI98
aI73
aa(lp1529
I61
aI98
aI33
aa(lp1530
I61
aI73
aI32
aa(lp1531
I61
aI6
aI32
aa(lp1532
I61
aI6
aI73
aa(lp1533
I61
aI32
aI111
aa(lp1534
I61
aI73
aI111
aa(lp1535
I61
aI98
aI111
aa(lp1536
I61
aI98
aI32
aa(lp1537
I61
aI100
aI32
aa(lp1538
I61
aI98
aI100
aa(lp1539
I61
aI31
aI32
aa(lp1540
I61
aI31
aI100
aa(lp1541
I61
aI2
aI32
aa(lp1542
I61
aI2
aI31
aa(lp1543
I61
aI31
aI20
aa(lp1544
I61
aI2
aI20
aa(lp1545
I125
aI124
aI127
aa(lp1546
I125
aI48
aI127
aa(lp1547
I125
aI48
aI124
aa(lp1548
I125
aI127
aI126
aa(lp1549
I125
aI137
aI126
aa(lp1550
I125
aI137
aI127
aa(lp1551
I125
aI195
aI126
aa(lp1552
I125
aI195
aI127
aa(lp1553
I125
aI48
aI195
aa(lp1554
I125
aI124
aI15
aa(lp1555
I125
aI48
aI15
aa(lp1556
I125
aI135
aI126
aa(lp1557
I125
aI137
aI135
aa(lp1558
I125
aI127
aI140
aa(lp1559
I125
aI124
aI140
aa(lp1560
I125
aI137
aI140
aa(lp1561
I125
aI137
aI124
aa(lp1562
I125
aI195
aI15
aa(lp1563
I195
aI135
aI126
aa(lp1564
I125
aI195
aI135
aa(lp1565
I125
aI135
aI15
aa(lp1566
I125
aI134
aI15
aa(lp1567
I125
aI134
aI135
aa(lp1568
I125
aI137
aI15
aa(lp1569
I125
aI134
aI137
aa(lp1570
I125
aI71
aI15
aa(lp1571
I125
aI124
aI71
aa(lp1572
I125
aI137
aI71
aa(lp1573
I114
aI113
aI116
aa(lp1574
I114
aI115
aI116
aa(lp1575
I114
aI115
aI113
aa(lp1576
I114
aI200
aI113
aa(lp1577
I114
aI200
aI115
aa(lp1578
I114
aI116
aI117
aa(lp1579
I114
aI115
aI117
aa(lp1580
I114
aI200
aI117
aa(lp1581
I114
aI198
aI199
aa(lp1582
I114
aI113
aI199
aa(lp1583
I114
aI113
aI198
aa(lp1584
I114
aI112
aI199
aa(lp1585
I114
aI112
aI113
aa(lp1586
I114
aI200
aI199
aa(lp1587
I114
aI200
aI112
aa(lp1588
I114
aI198
aI131
aa(lp1589
I114
aI113
aI131
aa(lp1590
I114
aI116
aI131
aa(lp1591
I114
aI132
aI131
aa(lp1592
I114
aI132
aI116
aa(lp1593
I114
aI113
aI132
aa(lp1594
I113
aI132
aI116
aa(lp1595
I14
aI101
aI8
aa(lp1596
I14
aI68
aI8
aa(lp1597
I14
aI68
aI101
aa(lp1598
I14
aI104
aI101
aa(lp1599
I14
aI104
aI68
aa(lp1600
I14
aI105
aI8
aa(lp1601
I14
aI119
aI8
aa(lp1602
I14
aI119
aI105
aa(lp1603
I14
aI68
aI191
aa(lp1604
I14
aI104
aI191
aa(lp1605
I14
aI192
aI11
aa(lp1606
I14
aI105
aI11
aa(lp1607
I14
aI105
aI192
aa(lp1608
I14
aI119
aI11
aa(lp1609
I14
aI119
aI192
aa(lp1610
I14
aI192
aI103
aa(lp1611
I14
aI191
aI103
aa(lp1612
I14
aI191
aI192
aa(lp1613
I104
aI192
aI103
aa(lp1614
I14
aI104
aI103
aa(lp1615
I14
aI104
aI192
aa(lp1616
I14
aI115
aI8
aa(lp1617
I14
aI119
aI115
aa(lp1618
I14
aI115
aI192
aa(lp1619
I14
aI115
aI191
aa(lp1620
I14
aI200
aI8
aa(lp1621
I14
aI200
aI115
aa(lp1622
I14
aI200
aI68
aa(lp1623
I14
aI200
aI191
aa(lp1624
I123
aI57
aI130
aa(lp1625
I123
aI128
aI130
aa(lp1626
I123
aI128
aI57
aa(lp1627
I123
aI75
aI57
aa(lp1628
I123
aI75
aI128
aa(lp1629
I123
aI92
aI130
aa(lp1630
I123
aI92
aI57
aa(lp1631
I123
aI128
aI19
aa(lp1632
I123
aI75
aI19
aa(lp1633
I123
aI142
aI130
aa(lp1634
I123
aI128
aI142
aa(lp1635
I123
aI142
aI19
aa(lp1636
I123
aI122
aI50
aa(lp1637
I123
aI92
aI50
aa(lp1638
I123
aI92
aI122
aa(lp1639
I123
aI122
aI130
aa(lp1640
I123
aI63
aI50
aa(lp1641
I123
aI92
aI63
aa(lp1642
I123
aI75
aI50
aa(lp1643
I123
aI75
aI63
aa(lp1644
I75
aI92
aI63
aa(lp1645
I123
aI75
aI92
aa(lp1646
I123
aI31
aI19
aa(lp1647
I123
aI142
aI31
aa(lp1648
I123
aI17
aI50
aa(lp1649
I123
aI19
aI50
aa(lp1650
I123
aI19
aI17
aa(lp1651
I123
aI75
aI17
aa(lp1652
I123
aI12
aI19
aa(lp1653
I123
aI31
aI12
aa(lp1654
I123
aI26
aI130
aa(lp1655
I123
aI26
aI142
aa(lp1656
I123
aI26
aI31
aa(lp1657
I123
aI12
aI50
aa(lp1658
I123
aI122
aI12
aa(lp1659
I123
aI122
aI31
aa(lp1660
I123
aI122
aI26
aa(lp1661
I28
aI63
aI36
aa(lp1662
I28
aI92
aI36
aa(lp1663
I28
aI92
aI63
aa(lp1664
I28
aI75
aI36
aa(lp1665
I28
aI75
aI63
aa(lp1666
I28
aI75
aI92
aa(lp1667
I28
aI102
aI36
aa(lp1668
I28
aI92
aI102
aa(lp1669
I28
aI36
aI9
aa(lp1670
I28
aI102
aI9
aa(lp1671
I28
aI48
aI57
aa(lp1672
I28
aI75
aI57
aa(lp1673
I28
aI75
aI48
aa(lp1674
I28
aI92
aI57
aa(lp1675
I28
aI123
aI57
aa(lp1676
I28
aI123
aI92
aa(lp1677
I28
aI123
aI75
aa(lp1678
I28
aI195
aI9
aa(lp1679
I28
aI102
aI195
aa(lp1680
I28
aI77
aI9
aa(lp1681
I28
aI36
aI77
aa(lp1682
I28
aI75
aI77
aa(lp1683
I28
aI48
aI77
aa(lp1684
I28
aI57
aI195
aa(lp1685
I28
aI48
aI195
aa(lp1686
I28
aI195
aI193
aa(lp1687
I28
aI57
aI193
aa(lp1688
I28
aI102
aI193
aa(lp1689
I28
aI112
aI102
aa(lp1690
I28
aI92
aI112
aa(lp1691
I28
aI195
aI77
aa(lp1692
I28
aI197
aI193
aa(lp1693
I28
aI197
aI57
aa(lp1694
I28
aI112
aI193
aa(lp1695
I28
aI197
aI112
aa(lp1696
I28
aI92
aI197
aa(lp1697
I28
aI196
aI193
aa(lp1698
I28
aI102
aI196
aa(lp1699
I28
aI112
aI196
aa(lp1700
I120
aI113
aI132
aa(lp1701
I120
aI122
aI132
aa(lp1702
I120
aI122
aI113
aa(lp1703
I120
aI119
aI113
aa(lp1704
I120
aI119
aI122
aa(lp1705
I120
aI132
aI116
aa(lp1706
I120
aI113
aI116
aa(lp1707
I120
aI119
aI116
aa(lp1708
I120
aI133
aI132
aa(lp1709
I120
aI122
aI133
aa(lp1710
I120
aI133
aI121
aa(lp1711
I120
aI122
aI121
aa(lp1712
I120
aI116
aI117
aa(lp1713
I120
aI132
aI117
aa(lp1714
I120
aI133
aI117
aa(lp1715
I120
aI118
aI121
aa(lp1716
I120
aI133
aI118
aa(lp1717
I120
aI70
aI121
aa(lp1718
I120
aI122
aI70
aa(lp1719
I120
aI119
aI121
aa(lp1720
I120
aI119
aI70
aa(lp1721
I120
aI118
aI117
aa(lp1722
I120
aI119
aI117
aa(lp1723
I120
aI119
aI118
aa(lp1724
I120
aI121
aI11
aa(lp1725
I120
aI118
aI11
aa(lp1726
I120
aI119
aI11
aa(lp1727
I143
aI109
aI108
aa(lp1728
I143
aI38
aI108
aa(lp1729
I143
aI38
aI109
aa(lp1730
I153
aI109
aI108
aa(lp1731
I143
aI153
aI108
aa(lp1732
I143
aI153
aI109
aa(lp1733
I143
aI109
aI54
aa(lp1734
I143
aI38
aI54
aa(lp1735
I13
aI1
aI100
aa(lp1736
I165
aI1
aI100
aa(lp1737
I165
aI13
aI100
aa(lp1738
I165
aI13
aI1
aa(lp1739
I165
aI38
aI54
aa(lp1740
I165
aI13
aI54
aa(lp1741
I165
aI13
aI38
aa(lp1742
I143
aI38
aI4
aa(lp1743
I165
aI38
aI4
aa(lp1744
I165
aI143
aI4
aa(lp1745
I165
aI143
aI38
aa(lp1746
I165
aI72
aI4
aa(lp1747
I165
aI72
aI38
aa(lp1748
I165
aI72
aI13
aa(lp1749
I1
aI62
aI34
aa(lp1750
I46
aI62
aI34
aa(lp1751
I46
aI1
aI34
aa(lp1752
I46
aI1
aI62
aa(lp1753
I46
aI1
aI100
aa(lp1754
I46
aI13
aI100
aa(lp1755
I46
aI13
aI1
aa(lp1756
I46
aI10
aI34
aa(lp1757
I46
aI12
aI34
aa(lp1758
I46
aI12
aI10
aa(lp1759
I25
aI1
aI34
aa(lp1760
I46
aI25
aI34
aa(lp1761
I46
aI25
aI1
aa(lp1762
I25
aI1
aI100
aa(lp1763
I46
aI25
aI100
aa(lp1764
I46
aI165
aI1
aa(lp1765
I46
aI165
aI13
aa(lp1766
I46
aI10
aI50
aa(lp1767
I46
aI12
aI50
aa(lp1768
I46
aI25
aI12
aa(lp1769
I46
aI31
aI100
aa(lp1770
I46
aI13
aI31
aa(lp1771
I46
aI12
aI20
aa(lp1772
I46
aI25
aI20
aa(lp1773
I46
aI31
aI20
aa(lp1774
I46
aI31
aI12
aa(lp1775
I31
aI100
aI20
aa(lp1776
I46
aI100
aI20
aa(lp1777
I46
aI70
aI12
aa(lp1778
I46
aI31
aI70
aa(lp1779
I46
aI13
aI70
aa(lp1780
I189
aI93
aI190
aa(lp1781
I189
aI188
aI190
aa(lp1782
I189
aI188
aI93
aa(lp1783
I69
aI105
aI108
aa(lp1784
I69
aI106
aI108
aa(lp1785
I69
aI106
aI105
aa(lp1786
I106
aI105
aI4
aa(lp1787
I69
aI105
aI4
aa(lp1788
I69
aI106
aI4
aa(lp1789
I69
aI38
aI4
aa(lp1790
I69
aI105
aI38
aa(lp1791
I69
aI38
aI108
aa(lp1792
I69
aI143
aI108
aa(lp1793
I69
aI143
aI38
aa(lp1794
I69
aI143
aI4
aa(lp1795
I69
aI58
aI108
aa(lp1796
I69
aI38
aI58
aa(lp1797
I69
aI105
aI58
aa(lp1798
I69
aI93
aI190
aa(lp1799
I69
aI189
aI190
aa(lp1800
I69
aI189
aI93
aa(lp1801
I194
aI105
aI192
aa(lp1802
I194
aI106
aI192
aa(lp1803
I194
aI106
aI105
aa(lp1804
I194
aI104
aI192
aa(lp1805
I194
aI14
aI192
aa(lp1806
I194
aI14
aI104
aa(lp1807
I194
aI192
aI103
aa(lp1808
I194
aI106
aI103
aa(lp1809
I106
aI186
aI103
aa(lp1810
I194
aI186
aI103
aa(lp1811
I194
aI106
aI186
aa(lp1812
I194
aI104
aI103
aa(lp1813
I186
aI88
aI103
aa(lp1814
I194
aI88
aI103
aa(lp1815
I194
aI186
aI88
aa(lp1816
I194
aI89
aI88
aa(lp1817
I194
aI89
aI186
aa(lp1818
I194
aI104
aI88
aa(lp1819
I194
aI104
aI89
aa(lp1820
I42
aI70
aI11
aa(lp1821
I42
aI72
aI11
aa(lp1822
I42
aI72
aI70
aa(lp1823
I42
aI8
aI11
aa(lp1824
I42
aI119
aI11
aa(lp1825
I42
aI119
aI8
aa(lp1826
I42
aI119
aI70
aa(lp1827
I42
aI70
aI8
aa(lp1828
I42
aI105
aI11
aa(lp1829
I42
aI105
aI8
aa(lp1830
I42
aI72
aI105
aa(lp1831
I42
aI14
aI8
aa(lp1832
I42
aI14
aI105
aa(lp1833
I14
aI72
aI105
aa(lp1834
I42
aI14
aI72
aa(lp1835
I42
aI10
aI8
aa(lp1836
I42
aI101
aI8
aa(lp1837
I42
aI101
aI10
aa(lp1838
I72
aI101
aI10
aa(lp1839
I42
aI72
aI10
aa(lp1840
I42
aI72
aI101
aa(lp1841
I42
aI13
aI70
aa(lp1842
I42
aI72
aI13
aa(lp1843
I42
aI8
aI50
aa(lp1844
I42
aI63
aI50
aa(lp1845
I42
aI63
aI8
aa(lp1846
I42
aI10
aI50
aa(lp1847
I42
aI63
aI10
aa(lp1848
I42
aI122
aI50
aa(lp1849
I42
aI122
aI8
aa(lp1850
I42
aI70
aI50
aa(lp1851
I42
aI122
aI70
aa(lp1852
I42
aI46
aI50
aa(lp1853
I42
aI46
aI10
aa(lp1854
I42
aI46
aI70
aa(lp1855
I42
aI46
aI13
aa(lp1856
I46
aI72
aI13
aa(lp1857
I42
aI46
aI72
aa(lp1858
I42
aI12
aI50
aa(lp1859
I42
aI70
aI12
aa(lp1860
I42
aI46
aI12
aa(lp1861
I74
aI101
aI10
aa(lp1862
I74
aI72
aI10
aa(lp1863
I74
aI72
aI101
aa(lp1864
I74
aI86
aI10
aa(lp1865
I74
aI101
aI86
aa(lp1866
I74
aI187
aI86
aa(lp1867
I74
aI187
aI101
aa(lp1868
I74
aI62
aI86
aa(lp1869
I74
aI62
aI187
aa(lp1870
I74
aI42
aI10
aa(lp1871
I74
aI42
aI72
aa(lp1872
I74
aI46
aI10
aa(lp1873
I74
aI42
aI46
aa(lp1874
I74
aI46
aI72
aa(lp1875
I74
aI10
aI3
aa(lp1876
I74
aI86
aI3
aa(lp1877
I74
aI62
aI3
aa(lp1878
I74
aI62
aI10
aa(lp1879
I74
aI10
aI34
aa(lp1880
I74
aI62
aI34
aa(lp1881
I74
aI46
aI34
aa(lp1882
I74
aI46
aI62
aa(lp1883
I74
aI72
aI4
aa(lp1884
I74
aI165
aI4
aa(lp1885
I74
aI165
aI72
aa(lp1886
I74
aI72
aI13
aa(lp1887
I74
aI165
aI13
aa(lp1888
I74
aI46
aI13
aa(lp1889
I74
aI46
aI165
aa(lp1890
I80
aI182
aI79
aa(lp1891
I80
aI81
aI79
aa(lp1892
I80
aI81
aI182
aa(lp1893
I80
aI49
aI79
aa(lp1894
I80
aI182
aI49
aa(lp1895
I80
aI62
aI49
aa(lp1896
I80
aI62
aI182
aa(lp1897
I81
aI56
aI182
aa(lp1898
I80
aI56
aI182
aa(lp1899
I80
aI81
aI56
aa(lp1900
I80
aI78
aI79
aa(lp1901
I80
aI78
aI49
aa(lp1902
I80
aI62
aI78
aa(lp1903
I80
aI185
aI79
aa(lp1904
I80
aI184
aI79
aa(lp1905
I80
aI184
aI185
aa(lp1906
I80
aI81
aI185
aa(lp1907
I80
aI81
aI184
aa(lp1908
I80
aI182
aI34
aa(lp1909
I80
aI56
aI34
aa(lp1910
I80
aI62
aI34
aa(lp1911
I80
aI183
aI79
aa(lp1912
I80
aI78
aI183
aa(lp1913
I80
aI184
aI183
aa(lp1914
I80
aI184
aI78
aa(lp1915
I80
aI188
aI78
aa(lp1916
I80
aI188
aI62
aa(lp1917
I80
aI184
aI188
aa(lp1918
I80
aI56
aI82
aa(lp1919
I80
aI81
aI82
aa(lp1920
I80
aI184
aI82
aa(lp1921
I25
aI56
aI34
aa(lp1922
I80
aI25
aI34
aa(lp1923
I80
aI25
aI56
aa(lp1924
I80
aI188
aI95
aa(lp1925
I80
aI184
aI95
aa(lp1926
I80
aI95
aI82
aa(lp1927
I80
aI56
aI95
aa(lp1928
I80
aI1
aI34
aa(lp1929
I80
aI1
aI62
aa(lp1930
I80
aI25
aI1
aa(lp1931
I80
aI25
aI95
aa(lp1932
I1
aI62
aI95
aa(lp1933
I80
aI62
aI95
aa(lp1934
I80
aI1
aI95
aa(lp1935
I181
aI81
aI175
aa(lp1936
I181
aI35
aI175
aa(lp1937
I181
aI35
aI81
aa(lp1938
I181
aI81
aI56
aa(lp1939
I181
aI35
aI56
aa(lp1940
I181
aI170
aI175
aa(lp1941
I181
aI81
aI170
aa(lp1942
I181
aI170
aI182
aa(lp1943
I181
aI81
aI182
aa(lp1944
I181
aI56
aI182
aa(lp1945
I181
aI27
aI175
aa(lp1946
I181
aI35
aI27
aa(lp1947
I181
aI55
aI51
aa(lp1948
I181
aI56
aI51
aa(lp1949
I181
aI56
aI55
aa(lp1950
I181
aI35
aI51
aa(lp1951
I181
aI169
aI170
aa(lp1952
I181
aI60
aI170
aa(lp1953
I181
aI60
aI169
aa(lp1954
I181
aI60
aI182
aa(lp1955
I181
aI60
aI56
aa(lp1956
I181
aI51
aI27
aa(lp1957
I181
aI55
aI27
aa(lp1958
I181
aI55
aI24
aa(lp1959
I181
aI56
aI24
aa(lp1960
I25
aI55
aI24
aa(lp1961
I181
aI25
aI24
aa(lp1962
I181
aI25
aI55
aa(lp1963
I181
aI25
aI56
aa(lp1964
I181
aI55
aI34
aa(lp1965
I181
aI60
aI34
aa(lp1966
I181
aI60
aI55
aa(lp1967
I181
aI25
aI34
aa(lp1968
I181
aI56
aI34
aa(lp1969
I181
aI55
aI167
aa(lp1970
I181
aI60
aI167
aa(lp1971
I61
aI55
aI51
aa(lp1972
I67
aI55
aI51
aa(lp1973
I67
aI61
aI51
aa(lp1974
I67
aI61
aI55
aa(lp1975
I67
aI51
aI24
aa(lp1976
I67
aI55
aI24
aa(lp1977
I67
aI25
aI24
aa(lp1978
I67
aI25
aI55
aa(lp1979
I61
aI55
aI2
aa(lp1980
I67
aI55
aI2
aa(lp1981
I67
aI61
aI2
aa(lp1982
I67
aI24
aI33
aa(lp1983
I67
aI51
aI33
aa(lp1984
I61
aI51
aI33
aa(lp1985
I67
aI61
aI33
aa(lp1986
I67
aI2
aI20
aa(lp1987
I67
aI55
aI20
aa(lp1988
I67
aI25
aI20
aa(lp1989
I67
aI98
aI33
aa(lp1990
I67
aI61
aI98
aa(lp1991
I67
aI24
aI99
aa(lp1992
I67
aI25
aI99
aa(lp1993
I67
aI98
aI100
aa(lp1994
I67
aI61
aI100
aa(lp1995
I67
aI61
aI20
aa(lp1996
I67
aI66
aI33
aa(lp1997
I67
aI66
aI24
aa(lp1998
I67
aI98
aI66
aa(lp1999
I67
aI66
aI99
aa(lp2000
I67
aI98
aI99
aa(lp2001
I67
aI100
aI20
aa(lp2002
I67
aI46
aI20
aa(lp2003
I67
aI46
aI100
aa(lp2004
I67
aI46
aI25
aa(lp2005
I67
aI25
aI100
aa(lp2006
I67
aI31
aI20
aa(lp2007
I67
aI31
aI100
aa(lp2008
I67
aI61
aI31
aa(lp2009
I67
aI100
aI99
aa(lp2010
I67
aI65
aI99
aa(lp2011
I67
aI65
aI100
aa(lp2012
I67
aI98
aI65
aa(lp2013
I98
aI65
aI100
aa(lp2014
I67
aI1
aI99
aa(lp2015
I67
aI1
aI100
aa(lp2016
I67
aI25
aI1
aa(lp2017
I160
aI55
aI2
aa(lp2018
I160
aI61
aI2
aa(lp2019
I160
aI61
aI55
aa(lp2020
I160
aI55
aI51
aa(lp2021
I160
aI61
aI51
aa(lp2022
I160
aI2
aI6
aa(lp2023
I160
aI166
aI6
aa(lp2024
I160
aI166
aI2
aa(lp2025
I160
aI166
aI55
aa(lp2026
I160
aI6
aI32
aa(lp2027
I160
aI2
aI32
aa(lp2028
I160
aI61
aI32
aa(lp2029
I160
aI61
aI6
aa(lp2030
I160
aI51
aI33
aa(lp2031
I160
aI61
aI33
aa(lp2032
I160
aI180
aI6
aa(lp2033
I160
aI166
aI180
aa(lp2034
I160
aI51
aI180
aa(lp2035
I160
aI55
aI180
aa(lp2036
I160
aI33
aI158
aa(lp2037
I160
aI51
aI158
aa(lp2038
I160
aI33
aI73
aa(lp2039
I160
aI61
aI73
aa(lp2040
I160
aI6
aI73
aa(lp2041
I160
aI158
aI73
aa(lp2042
I160
aI180
aI158
aa(lp2043
I160
aI157
aI158
aa(lp2044
I160
aI157
aI180
aa(lp2045
I160
aI157
aI6
aa(lp2046
I160
aI158
aI179
aa(lp2047
I160
aI180
aI179
aa(lp2048
I160
aI51
aI179
aa(lp2049
I160
aI157
aI73
aa(lp2050
I159
aI38
aI54
aa(lp2051
I159
aI143
aI54
aa(lp2052
I159
aI143
aI38
aa(lp2053
I159
aI165
aI54
aa(lp2054
I159
aI165
aI38
aa(lp2055
I159
aI165
aI143
aa(lp2056
I159
aI109
aI54
aa(lp2057
I159
aI143
aI109
aa(lp2058
I159
aI153
aI109
aa(lp2059
I159
aI143
aI153
aa(lp2060
I159
aI54
aI111
aa(lp2061
I159
aI109
aI111
aa(lp2062
I153
aI109
aI111
aa(lp2063
I159
aI153
aI111
aa(lp2064
I159
aI100
aI54
aa(lp2065
I159
aI13
aI54
aa(lp2066
I159
aI13
aI100
aa(lp2067
I159
aI165
aI13
aa(lp2068
I159
aI165
aI100
aa(lp2069
I159
aI37
aI111
aa(lp2070
I159
aI54
aI37
aa(lp2071
I159
aI100
aI111
aa(lp2072
I159
aI100
aI37
aa(lp2073
I159
aI65
aI100
aa(lp2074
I159
aI1
aI100
aa(lp2075
I159
aI1
aI65
aa(lp2076
I159
aI165
aI1
aa(lp2077
I159
aI98
aI111
aa(lp2078
I159
aI98
aI100
aa(lp2079
I159
aI98
aI65
aa(lp2080
I153
aI97
aI111
aa(lp2081
I159
aI97
aI111
aa(lp2082
I159
aI153
aI97
aa(lp2083
I159
aI65
aI97
aa(lp2084
I159
aI153
aI65
aa(lp2085
I159
aI98
aI97
aa(lp2086
I30
aI64
aI65
aa(lp2087
I30
aI153
aI65
aa(lp2088
I30
aI153
aI64
aa(lp2089
I30
aI159
aI65
aa(lp2090
I30
aI159
aI153
aa(lp2091
I30
aI165
aI1
aa(lp2092
I30
aI159
aI1
aa(lp2093
I30
aI159
aI165
aa(lp2094
I30
aI190
aI96
aa(lp2095
I30
aI64
aI96
aa(lp2096
I30
aI64
aI190
aa(lp2097
I153
aI190
aI96
aa(lp2098
I30
aI153
aI96
aa(lp2099
I30
aI153
aI190
aa(lp2100
I30
aI95
aI190
aa(lp2101
I30
aI64
aI95
aa(lp2102
I189
aI95
aI190
aa(lp2103
I30
aI189
aI190
aa(lp2104
I30
aI189
aI95
aa(lp2105
I30
aI1
aI95
aa(lp2106
I30
aI1
aI64
aa(lp2107
I30
aI1
aI65
aa(lp2108
I44
aI153
aI108
aa(lp2109
I44
aI143
aI108
aa(lp2110
I44
aI143
aI153
aa(lp2111
I44
aI69
aI108
aa(lp2112
I44
aI69
aI143
aa(lp2113
I44
aI189
aI190
aa(lp2114
I44
aI69
aI190
aa(lp2115
I44
aI69
aI189
aa(lp2116
I44
aI143
aI4
aa(lp2117
I44
aI69
aI4
aa(lp2118
I69
aI189
aI4
aa(lp2119
I44
aI189
aI4
aa(lp2120
I44
aI153
aI190
aa(lp2121
I44
aI30
aI190
aa(lp2122
I44
aI30
aI153
aa(lp2123
I44
aI30
aI189
aa(lp2124
I30
aI189
aI165
aa(lp2125
I44
aI189
aI165
aa(lp2126
I44
aI30
aI165
aa(lp2127
I44
aI165
aI4
aa(lp2128
I44
aI165
aI143
aa(lp2129
I189
aI165
aI4
aa(lp2130
I44
aI159
aI153
aa(lp2131
I44
aI159
aI143
aa(lp2132
I44
aI159
aI165
aa(lp2133
I44
aI30
aI159
aa(lp2134
I107
aI106
aI4
aa(lp2135
I107
aI69
aI4
aa(lp2136
I107
aI69
aI106
aa(lp2137
I189
aI91
aI4
aa(lp2138
I107
aI91
aI4
aa(lp2139
I107
aI189
aI4
aa(lp2140
I107
aI189
aI91
aa(lp2141
I107
aI69
aI189
aa(lp2142
I69
aI106
aI93
aa(lp2143
I107
aI106
aI93
aa(lp2144
I107
aI69
aI93
aa(lp2145
I107
aI105
aI4
aa(lp2146
I107
aI106
aI105
aa(lp2147
I194
aI91
aI186
aa(lp2148
I107
aI91
aI186
aa(lp2149
I107
aI194
aI186
aa(lp2150
I107
aI194
aI91
aa(lp2151
I107
aI106
aI186
aa(lp2152
I107
aI194
aI106
aa(lp2153
I189
aI91
aI93
aa(lp2154
I107
aI91
aI93
aa(lp2155
I107
aI189
aI93
aa(lp2156
I107
aI93
aI186
aa(lp2157
I106
aI93
aI186
aa(lp2158
I53
aI104
aI101
aa(lp2159
I53
aI14
aI101
aa(lp2160
I53
aI14
aI104
aa(lp2161
I53
aI194
aI104
aa(lp2162
I53
aI194
aI14
aa(lp2163
I53
aI89
aI101
aa(lp2164
I53
aI104
aI89
aa(lp2165
I53
aI194
aI89
aa(lp2166
I53
aI72
aI105
aa(lp2167
I53
aI14
aI105
aa(lp2168
I53
aI14
aI72
aa(lp2169
I53
aI105
aI192
aa(lp2170
I53
aI14
aI192
aa(lp2171
I53
aI194
aI192
aa(lp2172
I53
aI194
aI105
aa(lp2173
I53
aI187
aI101
aa(lp2174
I53
aI89
aI187
aa(lp2175
I53
aI91
aI187
aa(lp2176
I53
aI91
aI89
aa(lp2177
I53
aI194
aI91
aa(lp2178
I53
aI107
aI91
aa(lp2179
I53
aI107
aI194
aa(lp2180
I53
aI89
aI186
aa(lp2181
I53
aI91
aI186
aa(lp2182
I53
aI194
aI186
aa(lp2183
I53
aI72
aI101
aa(lp2184
I53
aI42
aI101
aa(lp2185
I53
aI42
aI72
aa(lp2186
I53
aI42
aI14
aa(lp2187
I53
aI106
aI105
aa(lp2188
I53
aI194
aI106
aa(lp2189
I53
aI107
aI105
aa(lp2190
I53
aI107
aI106
aa(lp2191
I53
aI74
aI101
aa(lp2192
I53
aI74
aI187
aa(lp2193
I74
aI91
aI187
aa(lp2194
I53
aI74
aI91
aa(lp2195
I53
aI105
aI4
aa(lp2196
I53
aI72
aI4
aa(lp2197
I53
aI107
aI4
aa(lp2198
I53
aI101
aI8
aa(lp2199
I53
aI14
aI8
aa(lp2200
I53
aI42
aI8
aa(lp2201
I53
aI74
aI72
aa(lp2202
I53
aI91
aI4
aa(lp2203
I74
aI91
aI4
aa(lp2204
I53
aI74
aI4
aa(lp2205
I94
aI188
aI93
aa(lp2206
I94
aI91
aI93
aa(lp2207
I94
aI91
aI188
aa(lp2208
I94
aI189
aI93
aa(lp2209
I94
aI189
aI188
aa(lp2210
I94
aI189
aI91
aa(lp2211
I94
aI188
aI187
aa(lp2212
I94
aI91
aI187
aa(lp2213
I94
aI74
aI187
aa(lp2214
I94
aI74
aI91
aa(lp2215
I94
aI62
aI187
aa(lp2216
I94
aI188
aI62
aa(lp2217
I94
aI74
aI62
aa(lp2218
I94
aI91
aI4
aa(lp2219
I94
aI189
aI4
aa(lp2220
I94
aI165
aI4
aa(lp2221
I94
aI189
aI165
aa(lp2222
I94
aI74
aI4
aa(lp2223
I94
aI74
aI165
aa(lp2224
I94
aI62
aI95
aa(lp2225
I94
aI1
aI95
aa(lp2226
I94
aI1
aI62
aa(lp2227
I94
aI30
aI95
aa(lp2228
I94
aI30
aI1
aa(lp2229
I94
aI189
aI95
aa(lp2230
I94
aI30
aI189
aa(lp2231
I94
aI95
aI190
aa(lp2232
I94
aI188
aI190
aa(lp2233
I94
aI188
aI95
aa(lp2234
I94
aI189
aI190
aa(lp2235
I94
aI46
aI62
aa(lp2236
I94
aI46
aI1
aa(lp2237
I94
aI74
aI46
aa(lp2238
I94
aI165
aI1
aa(lp2239
I94
aI30
aI165
aa(lp2240
I94
aI46
aI165
aa(lp2241
I94
aI80
aI95
aa(lp2242
I94
aI80
aI62
aa(lp2243
I94
aI80
aI188
aa(lp2244
I168
aI170
aI175
aa(lp2245
I168
aI181
aI175
aa(lp2246
I168
aI181
aI170
aa(lp2247
I168
aI169
aI170
aa(lp2248
I168
aI181
aI169
aa(lp2249
I168
aI170
aI41
aa(lp2250
I168
aI169
aI41
aa(lp2251
I168
aI27
aI175
aa(lp2252
I168
aI181
aI27
aa(lp2253
I168
aI175
aI174
aa(lp2254
I168
aI41
aI174
aa(lp2255
I168
aI41
aI175
aa(lp2256
I168
aI170
aI174
aa(lp2257
I168
aI148
aI175
aa(lp2258
I168
aI148
aI41
aa(lp2259
I168
aI27
aI148
aa(lp2260
I168
aI27
aI167
aa(lp2261
I168
aI55
aI167
aa(lp2262
I168
aI55
aI27
aa(lp2263
I168
aI181
aI167
aa(lp2264
I168
aI181
aI55
aa(lp2265
I168
aI169
aI167
aa(lp2266
I168
aI60
aI167
aa(lp2267
I168
aI60
aI169
aa(lp2268
I168
aI181
aI60
aa(lp2269
I168
aI40
aI41
aa(lp2270
I168
aI40
aI148
aa(lp2271
I168
aI166
aI167
aa(lp2272
I168
aI166
aI27
aa(lp2273
I168
aI47
aI41
aa(lp2274
I168
aI47
aI40
aa(lp2275
I168
aI169
aI47
aa(lp2276
I168
aI169
aI40
aa(lp2277
I168
aI40
aI167
aa(lp2278
I168
aI166
aI40
aa(lp2279
I168
aI148
aI59
aa(lp2280
I168
aI27
aI59
aa(lp2281
I168
aI166
aI59
aa(lp2282
I168
aI145
aI167
aa(lp2283
I168
aI145
aI40
aa(lp2284
I168
aI169
aI145
aa(lp2285
I168
aI151
aI148
aa(lp2286
I168
aI151
aI40
aa(lp2287
I168
aI166
aI151
aa(lp2288
I168
aI151
aI59
aa.