(lp0
(lp1
I9
aI1
aI18
aa(lp2
I5
aI1
aI18
aa(lp3
I5
aI9
aI18
aa(lp4
I5
aI9
aI1
aa(lp5
I7
aI1
aI18
aa(lp6
I7
aI9
aI18
aa(lp7
I7
aI9
aI1
aa(lp8
I18
aI6
aI15
aa(lp9
I7
aI6
aI15
aa(lp10
I7
aI18
aI15
aa(lp11
I7
aI18
aI6
aa(lp12
I23
aI9
aI6
aa(lp13
I7
aI9
aI6
aa(lp14
I7
aI23
aI6
aa(lp15
I7
aI23
aI9
aa(lp16
I23
aI9
aI1
aa(lp17
I7
aI23
aI1
aa(lp18
I9
aI13
aI21
aa(lp19
I10
aI13
aI21
aa(lp20
I10
aI9
aI21
aa(lp21
I10
aI9
aI13
aa(lp22
I2
aI6
aI15
aa(lp23
I11
aI6
aI15
aa(lp24
I11
aI2
aI15
aa(lp25
I11
aI2
aI6
aa(lp26
I11
aI7
aI15
aa(lp27
I11
aI7
aI6
aa(lp28
I11
aI23
aI6
aa(lp29
I11
aI7
aI23
aa(lp30
I11
aI23
aI1
aa(lp31
I11
aI7
aI1
aa(lp32
I5
aI18
aI15
aa(lp33
I11
aI18
aI15
aa(lp34
I11
aI5
aI15
aa(lp35
I11
aI5
aI18
aa(lp36
I11
aI1
aI18
aa(lp37
I11
aI5
aI1
aa(lp38
I11
aI7
aI18
aa(lp39
I8
aI2
aI6
aa(lp40
I8
aI11
aI6
aa(lp41
I8
aI11
aI2
aa(lp42
I8
aI23
aI6
aa(lp43
I8
aI11
aI23
aa(lp44
I8
aI23
aI1
aa(lp45
I8
aI11
aI1
aa(lp46
I8
aI9
aI1
aa(lp47
I8
aI23
aI9
aa(lp48
I8
aI5
aI1
aa(lp49
I8
aI11
aI5
aa(lp50
I19
aI9
aI18
aa(lp51
I19
aI5
aI18
aa(lp52
I19
aI5
aI9
aa(lp53
I14
aI5
aI18
aa(lp54
I19
aI14
aI18
aa(lp55
I19
aI14
aI5
aa(lp56
I14
aI5
aI9
aa(lp57
I19
aI14
aI9
aa(lp58
I13
aI24
aI21
aa(lp59
I19
aI24
aI21
aa(lp60
I19
aI13
aI21
aa(lp61
I19
aI13
aI24
aa(lp62
I19
aI14
aI24
aa(lp63
I20
aI14
aI24
aa(lp64
I20
aI19
aI24
aa(lp65
I20
aI19
aI14
aa(lp66
I2
aI24
aI21
aa(lp67
I20
aI24
aI21
aa(lp68
I20
aI2
aI21
aa(lp69
I20
aI2
aI24
aa(lp70
I20
aI13
aI21
aa(lp71
I20
aI13
aI24
aa(lp72
I10
aI2
aI21
aa(lp73
I20
aI10
aI21
aa(lp74
I20
aI10
aI2
aa(lp75
I20
aI10
aI13
aa(lp76
I4
aI5
aI1
aa(lp77
I22
aI5
aI1
aa(lp78
I22
aI4
aI1
aa(lp79
I22
aI4
aI5
aa(lp80
I22
aI9
aI1
aa(lp81
I22
aI5
aI9
aa(lp82
I22
aI14
aI9
aa(lp83
I22
aI14
aI5
aa(lp84
I20
aI4
aI5
aa(lp85
I22
aI20
aI5
aa(lp86
I22
aI20
aI4
aa(lp87
I20
aI14
aI5
aa(lp88
I22
aI20
aI14
aa(lp89
I22
aI19
aI9
aa(lp90
I22
aI19
aI14
aa(lp91
I22
aI20
aI19
aa(lp92
I19
aI9
aI13
aa(lp93
I22
aI9
aI13
aa(lp94
I22
aI19
aI13
aa(lp95
I22
aI10
aI13
aa(lp96
I22
aI20
aI13
aa(lp97
I22
aI20
aI10
aa(lp98
I22
aI13
aI24
aa(lp99
I22
aI19
aI24
aa(lp100
I22
aI20
aI24
aa(lp101
I4
aI10
aI2
aa(lp102
I22
aI10
aI2
aa(lp103
I22
aI4
aI2
aa(lp104
I22
aI4
aI10
aa(lp105
I22
aI20
aI2
aa(lp106
I20
aI4
aI2
aa(lp107
I12
aI10
aI2
aa(lp108
I12
aI4
aI2
aa(lp109
I12
aI4
aI10
aa(lp110
I12
aI9
aI6
aa(lp111
I12
aI23
aI6
aa(lp112
I12
aI23
aI9
aa(lp113
I12
aI8
aI6
aa(lp114
I12
aI8
aI23
aa(lp115
I12
aI8
aI9
aa(lp116
I12
aI2
aI6
aa(lp117
I12
aI8
aI2
aa(lp118
I12
aI2
aI21
aa(lp119
I12
aI10
aI21
aa(lp120
I3
aI5
aI1
aa(lp121
I3
aI4
aI1
aa(lp122
I3
aI4
aI5
aa(lp123
I3
aI8
aI1
aa(lp124
I3
aI8
aI5
aa(lp125
I8
aI4
aI1
aa(lp126
I3
aI8
aI4
aa(lp127
I3
aI20
aI5
aa(lp128
I3
aI20
aI4
aa(lp129
I3
aI4
aI2
aa(lp130
I3
aI20
aI2
aa(lp131
I3
aI11
aI2
aa(lp132
I3
aI8
aI2
aa(lp133
I3
aI8
aI11
aa(lp134
I3
aI12
aI2
aa(lp135
I3
aI12
aI4
aa(lp136
I3
aI12
aI8
aa(lp137
I12
aI8
aI4
aa(lp138
I3
aI2
aI15
aa(lp139
I3
aI11
aI15
aa(lp140
I3
aI2
aI24
aa(lp141
I3
aI20
aI24
aa(lp142
I17
aI9
aI1
aa(lp143
I17
aI22
aI1
aa(lp144
I17
aI22
aI9
aa(lp145
I17
aI4
aI1
aa(lp146
I17
aI22
aI4
aa(lp147
I17
aI4
aI10
aa(lp148
I17
aI22
aI10
aa(lp149
I17
aI8
aI1
aa(lp150
I17
aI8
aI9
aa(lp151
I17
aI12
aI9
aa(lp152
I17
aI12
aI8
aa(lp153
I17
aI8
aI4
aa(lp154
I17
aI12
aI4
aa(lp155
I12
aI10
aI9
aa(lp156
I17
aI10
aI9
aa(lp157
I17
aI12
aI10
aa(lp158
I17
aI9
aI13
aa(lp159
I17
aI10
aI13
aa(lp160
I17
aI22
aI13
aa(lp161
I16
aI14
aI5
aa(lp162
I16
aI20
aI5
aa(lp163
I16
aI20
aI14
aa(lp164
I16
aI3
aI5
aa(lp165
I16
aI3
aI20
aa(lp166
I16
aI14
aI24
aa(lp167
I16
aI20
aI24
aa(lp168
I16
aI3
aI24
aa(lp169
I16
aI5
aI18
aa(lp170
I16
aI14
aI18
aa(lp171
I24
aI18
aI15
aa(lp172
I16
aI18
aI15
aa(lp173
I16
aI24
aI15
aa(lp174
I16
aI24
aI18
aa(lp175
I16
aI5
aI15
aa(lp176
I19
aI24
aI18
aa(lp177
I16
aI19
aI18
aa(lp178
I16
aI19
aI24
aa(lp179
I16
aI19
aI14
aa(lp180
I2
aI24
aI15
aa(lp181
I16
aI2
aI15
aa(lp182
I16
aI2
aI24
aa(lp183
I16
aI3
aI15
aa(lp184
I16
aI3
aI2
aa(lp185
I16
aI11
aI15
aa(lp186
I16
aI11
aI5
aa(lp187
I16
aI3
aI11
aa(lp188
I16
aI8
aI5
aa(lp189
I16
aI8
aI11
aa(lp190
I16
aI3
aI8
aa.