(lp0
(lp1
I9
aI21
aI24
aa(lp2
I5
aI21
aI24
aa(lp3
I5
aI9
aI24
aa(lp4
I5
aI9
aI21
aa(lp5
I14
aI9
aI24
aa(lp6
I5
aI14
aI24
aa(lp7
I5
aI14
aI9
aa(lp8
I14
aI9
aI18
aa(lp9
I5
aI9
aI18
aa(lp10
I5
aI14
aI18
aa(lp11
I19
aI14
aI24
aa(lp12
I19
aI5
aI24
aa(lp13
I19
aI5
aI14
aa(lp14
I19
aI14
aI18
aa(lp15
I19
aI5
aI18
aa(lp16
I23
aI14
aI18
aa(lp17
I23
aI19
aI18
aa(lp18
I23
aI19
aI14
aa(lp19
I11
aI22
aI6
aa(lp20
I12
aI22
aI6
aa(lp21
I12
aI11
aI6
aa(lp22
I12
aI11
aI22
aa(lp23
I11
aI2
aI6
aa(lp24
I12
aI2
aI6
aa(lp25
I12
aI11
aI2
aa(lp26
I23
aI19
aI22
aa(lp27
I7
aI19
aI22
aa(lp28
I7
aI23
aI22
aa(lp29
I7
aI23
aI19
aa(lp30
I5
aI2
aI18
aa(lp31
I15
aI2
aI18
aa(lp32
I15
aI5
aI18
aa(lp33
I15
aI5
aI2
aa(lp34
I15
aI19
aI18
aa(lp35
I15
aI19
aI5
aa(lp36
I19
aI5
aI2
aa(lp37
I15
aI19
aI2
aa(lp38
I15
aI6
aI20
aa(lp39
I8
aI6
aI20
aa(lp40
I8
aI15
aI20
aa(lp41
I8
aI15
aI6
aa(lp42
I15
aI22
aI6
aa(lp43
I8
aI22
aI6
aa(lp44
I8
aI15
aI22
aa(lp45
I23
aI14
aI20
aa(lp46
I17
aI14
aI20
aa(lp47
I17
aI23
aI20
aa(lp48
I17
aI23
aI14
aa(lp49
I17
aI14
aI18
aa(lp50
I17
aI23
aI18
aa(lp51
I9
aI18
aI20
aa(lp52
I17
aI18
aI20
aa(lp53
I17
aI9
aI20
aa(lp54
I17
aI9
aI18
aa(lp55
I14
aI9
aI20
aa(lp56
I17
aI14
aI9
aa(lp57
I8
aI23
aI20
aa(lp58
I17
aI8
aI20
aa(lp59
I17
aI8
aI23
aa(lp60
I10
aI5
aI21
aa(lp61
I1
aI5
aI21
aa(lp62
I1
aI10
aI21
aa(lp63
I1
aI10
aI5
aa(lp64
I1
aI9
aI21
aa(lp65
I1
aI5
aI9
aa(lp66
I1
aI2
aI18
aa(lp67
I1
aI5
aI18
aa(lp68
I1
aI5
aI2
aa(lp69
I10
aI11
aI2
aa(lp70
I1
aI11
aI2
aa(lp71
I1
aI10
aI2
aa(lp72
I1
aI10
aI11
aa(lp73
I1
aI9
aI18
aa(lp74
I1
aI15
aI18
aa(lp75
I1
aI15
aI2
aa(lp76
I1
aI18
aI20
aa(lp77
I1
aI9
aI20
aa(lp78
I1
aI17
aI20
aa(lp79
I1
aI17
aI18
aa(lp80
I17
aI15
aI20
aa(lp81
I1
aI15
aI20
aa(lp82
I1
aI17
aI15
aa(lp83
I17
aI15
aI18
aa(lp84
I7
aI19
aI24
aa(lp85
I4
aI19
aI24
aa(lp86
I4
aI7
aI24
aa(lp87
I4
aI7
aI19
aa(lp88
I7
aI10
aI24
aa(lp89
I4
aI10
aI24
aa(lp90
I4
aI7
aI10
aa(lp91
I4
aI5
aI24
aa(lp92
I4
aI19
aI5
aa(lp93
I4
aI5
aI2
aa(lp94
I4
aI19
aI2
aa(lp95
I4
aI11
aI2
aa(lp96
I4
aI10
aI2
aa(lp97
I4
aI10
aI11
aa(lp98
I4
aI21
aI24
aa(lp99
I4
aI5
aI21
aa(lp100
I10
aI21
aI24
aa(lp101
I4
aI10
aI21
aa(lp102
I4
aI10
aI5
aa(lp103
I4
aI1
aI2
aa(lp104
I4
aI1
aI5
aa(lp105
I4
aI1
aI10
aa(lp106
I16
aI19
aI22
aa(lp107
I16
aI23
aI22
aa(lp108
I16
aI23
aI19
aa(lp109
I16
aI7
aI22
aa(lp110
I16
aI7
aI19
aa(lp111
I8
aI23
aI22
aa(lp112
I16
aI8
aI22
aa(lp113
I16
aI8
aI23
aa(lp114
I16
aI15
aI22
aa(lp115
I16
aI8
aI15
aa(lp116
I16
aI19
aI18
aa(lp117
I16
aI23
aI18
aa(lp118
I16
aI15
aI18
aa(lp119
I16
aI15
aI19
aa(lp120
I16
aI17
aI23
aa(lp121
I16
aI17
aI8
aa(lp122
I16
aI17
aI18
aa(lp123
I16
aI17
aI15
aa(lp124
I16
aI15
aI20
aa(lp125
I16
aI8
aI20
aa(lp126
I16
aI17
aI20
aa(lp127
I13
aI19
aI2
aa(lp128
I13
aI15
aI2
aa(lp129
I13
aI15
aI19
aa(lp130
I13
aI4
aI2
aa(lp131
I13
aI4
aI19
aa(lp132
I13
aI7
aI19
aa(lp133
I13
aI4
aI7
aa(lp134
I13
aI16
aI19
aa(lp135
I13
aI16
aI7
aa(lp136
I13
aI16
aI15
aa(lp137
I13
aI11
aI2
aa(lp138
I13
aI4
aI11
aa(lp139
I7
aI11
aI22
aa(lp140
I13
aI11
aI22
aa(lp141
I13
aI7
aI22
aa(lp142
I13
aI7
aI11
aa(lp143
I13
aI22
aI6
aa(lp144
I13
aI15
aI6
aa(lp145
I13
aI15
aI22
aa(lp146
I15
aI2
aI6
aa(lp147
I13
aI2
aI6
aa(lp148
I13
aI16
aI22
aa(lp149
I7
aI10
aI11
aa(lp150
I13
aI10
aI11
aa(lp151
I13
aI7
aI10
aa(lp152
I13
aI4
aI10
aa(lp153
I13
aI11
aI6
aa(lp154
I3
aI11
aI2
aa(lp155
I3
aI12
aI2
aa(lp156
I3
aI12
aI11
aa(lp157
I3
aI1
aI2
aa(lp158
I3
aI1
aI11
aa(lp159
I3
aI2
aI6
aa(lp160
I3
aI12
aI6
aa(lp161
I12
aI10
aI11
aa(lp162
I3
aI10
aI11
aa(lp163
I3
aI12
aI10
aa(lp164
I3
aI1
aI10
aa(lp165
I3
aI15
aI6
aa(lp166
I3
aI15
aI2
aa(lp167
I3
aI1
aI15
aa(lp168
I12
aI6
aI20
aa(lp169
I3
aI6
aI20
aa(lp170
I3
aI12
aI20
aa(lp171
I12
aI10
aI21
aa(lp172
I3
aI10
aI21
aa(lp173
I3
aI12
aI21
aa(lp174
I3
aI1
aI21
aa(lp175
I3
aI15
aI20
aa(lp176
I3
aI1
aI20
aa(lp177
I12
aI9
aI20
aa(lp178
I3
aI9
aI20
aa(lp179
I3
aI12
aI9
aa(lp180
I3
aI1
aI9
aa(lp181
I12
aI9
aI21
aa(lp182
I3
aI9
aI21
aa.