(lp0
(lp1
I181
aI110
aI22
aa(lp2
I96
aI110
aI22
aa(lp3
I96
aI181
aI22
aa(lp4
I96
aI181
aI110
aa(lp5
I121
aI118
aI123
aa(lp6
I119
aI118
aI123
aa(lp7
I119
aI121
aI123
aa(lp8
I119
aI121
aI118
aa(lp9
I121
aI120
aI123
aa(lp10
I119
aI120
aI123
aa(lp11
I119
aI121
aI120
aa(lp12
I121
aI120
aI118
aa(lp13
I119
aI120
aI118
aa(lp14
I168
aI137
aI167
aa(lp15
I171
aI137
aI167
aa(lp16
I171
aI168
aI167
aa(lp17
I171
aI168
aI137
aa(lp18
I137
aI142
aI118
aa(lp19
I117
aI142
aI118
aa(lp20
I117
aI137
aI118
aa(lp21
I117
aI137
aI142
aa(lp22
I121
aI142
aI118
aa(lp23
I117
aI121
aI118
aa(lp24
I117
aI121
aI142
aa(lp25
I117
aI120
aI118
aa(lp26
I117
aI121
aI120
aa(lp27
I117
aI119
aI118
aa(lp28
I117
aI119
aI120
aa(lp29
I61
aI129
aI86
aa(lp30
I122
aI129
aI86
aa(lp31
I122
aI61
aI86
aa(lp32
I122
aI61
aI129
aa(lp33
I200
aI193
aI50
aa(lp34
I196
aI193
aI50
aa(lp35
I196
aI200
aI50
aa(lp36
I196
aI200
aI193
aa(lp37
I192
aI193
aI50
aa(lp38
I192
aI196
aI50
aa(lp39
I192
aI196
aI193
aa(lp40
I193
aI50
aI36
aa(lp41
I192
aI50
aI36
aa(lp42
I192
aI193
aI36
aa(lp43
I122
aI129
aI151
aa(lp44
I140
aI129
aI151
aa(lp45
I140
aI122
aI151
aa(lp46
I140
aI122
aI129
aa(lp47
I172
aI174
aI176
aa(lp48
I175
aI174
aI176
aa(lp49
I175
aI172
aI176
aa(lp50
I175
aI172
aI174
aa(lp51
I143
aI121
aI142
aa(lp52
I143
aI117
aI142
aa(lp53
I143
aI117
aI121
aa(lp54
I143
aI121
aI120
aa(lp55
I143
aI117
aI120
aa(lp56
I28
aI2
aI181
aa(lp57
I15
aI2
aI181
aa(lp58
I15
aI28
aI181
aa(lp59
I15
aI28
aI2
aa(lp60
I172
aI171
aI168
aa(lp61
I169
aI171
aI168
aa(lp62
I169
aI172
aI168
aa(lp63
I169
aI172
aI171
aa(lp64
I66
aI94
aI151
aa(lp65
I95
aI94
aI151
aa(lp66
I95
aI66
aI151
aa(lp67
I95
aI66
aI94
aa(lp68
I140
aI94
aI151
aa(lp69
I95
aI140
aI151
aa(lp70
I95
aI140
aI94
aa(lp71
I111
aI106
aI79
aa(lp72
I51
aI106
aI79
aa(lp73
I51
aI111
aI79
aa(lp74
I51
aI111
aI106
aa(lp75
I164
aI137
aI167
aa(lp76
I164
aI168
aI167
aa(lp77
I164
aI168
aI137
aa(lp78
I160
aI137
aI167
aa(lp79
I164
aI160
aI167
aa(lp80
I164
aI160
aI137
aa(lp81
I90
aI28
aI2
aa(lp82
I90
aI15
aI2
aa(lp83
I90
aI15
aI28
aa(lp84
I200
aI50
aI97
aa(lp85
I104
aI50
aI97
aa(lp86
I104
aI200
aI97
aa(lp87
I104
aI200
aI50
aa(lp88
I104
aI196
aI50
aa(lp89
I104
aI196
aI200
aa(lp90
I104
aI192
aI50
aa(lp91
I104
aI192
aI196
aa(lp92
I199
aI200
aI97
aa(lp93
I104
aI199
aI97
aa(lp94
I104
aI199
aI200
aa(lp95
I199
aI196
aI200
aa(lp96
I104
aI199
aI196
aa(lp97
I87
aI49
aI20
aa(lp98
I104
aI49
aI20
aa(lp99
I104
aI87
aI20
aa(lp100
I104
aI87
aI49
aa(lp101
I138
aI137
aI142
aa(lp102
I138
aI117
aI142
aa(lp103
I138
aI117
aI137
aa(lp104
I138
aI117
aI120
aa(lp105
I138
aI143
aI120
aa(lp106
I138
aI143
aI117
aa(lp107
I143
aI139
aI120
aa(lp108
I138
aI139
aI120
aa(lp109
I138
aI143
aI139
aa(lp110
I138
aI143
aI142
aa(lp111
I143
aI139
aI142
aa(lp112
I138
aI139
aI142
aa(lp113
I139
aI168
aI137
aa(lp114
I138
aI168
aI137
aa(lp115
I138
aI139
aI137
aa(lp116
I138
aI139
aI168
aa(lp117
I182
aI181
aI22
aa(lp118
I13
aI181
aI22
aa(lp119
I13
aI182
aI22
aa(lp120
I13
aI182
aI181
aa(lp121
I1
aI185
aI2
aa(lp122
I13
aI185
aI2
aa(lp123
I13
aI1
aI2
aa(lp124
I13
aI1
aI185
aa(lp125
I111
aI119
aI79
aa(lp126
I113
aI119
aI79
aa(lp127
I113
aI111
aI79
aa(lp128
I113
aI111
aI119
aa(lp129
I45
aI122
aI151
aa(lp130
I45
aI140
aI151
aa(lp131
I45
aI140
aI122
aa(lp132
I122
aI61
aI151
aa(lp133
I45
aI61
aI151
aa(lp134
I45
aI122
aI61
aa(lp135
I62
aI122
aI61
aa(lp136
I45
aI62
aI61
aa(lp137
I45
aI62
aI122
aa(lp138
I54
aI122
aI129
aa(lp139
I54
aI140
aI129
aa(lp140
I54
aI140
aI122
aa(lp141
I140
aI122
aI16
aa(lp142
I54
aI122
aI16
aa(lp143
I54
aI140
aI16
aa(lp144
I26
aI3
aI16
aa(lp145
I54
aI3
aI16
aa(lp146
I54
aI26
aI16
aa(lp147
I54
aI26
aI3
aa(lp148
I140
aI96
aI129
aa(lp149
I54
aI96
aI129
aa(lp150
I54
aI140
aI96
aa(lp151
I178
aI96
aI129
aa(lp152
I54
aI178
aI129
aa(lp153
I54
aI178
aI96
aa(lp154
I7
aI3
aI16
aa(lp155
I7
aI26
aI16
aa(lp156
I7
aI26
aI3
aa(lp157
I3
aI178
aI182
aa(lp158
I149
aI178
aI182
aa(lp159
I149
aI3
aI182
aa(lp160
I149
aI3
aI178
aa(lp161
I7
aI150
aI182
aa(lp162
I149
aI150
aI182
aa(lp163
I149
aI7
aI182
aa(lp164
I149
aI7
aI150
aa(lp165
I7
aI3
aI182
aa(lp166
I149
aI7
aI3
aa(lp167
I7
aI40
aI150
aa(lp168
I149
aI40
aI150
aa(lp169
I149
aI7
aI40
aa(lp170
I7
aI3
aI40
aa(lp171
I149
aI3
aI40
aa(lp172
I115
aI61
aI86
aa(lp173
I115
aI122
aI86
aa(lp174
I115
aI122
aI61
aa(lp175
I128
aI127
aI86
aa(lp176
I115
aI127
aI86
aa(lp177
I115
aI128
aI86
aa(lp178
I115
aI128
aI127
aa(lp179
I113
aI114
aI61
aa(lp180
I115
aI114
aI61
aa(lp181
I115
aI113
aI61
aa(lp182
I115
aI113
aI114
aa(lp183
I113
aI128
aI127
aa(lp184
I115
aI113
aI127
aa(lp185
I115
aI113
aI128
aa(lp186
I177
aI181
aI110
aa(lp187
I177
aI96
aI110
aa(lp188
I177
aI96
aI181
aa(lp189
I178
aI96
aI181
aa(lp190
I177
aI178
aI181
aa(lp191
I177
aI178
aI96
aa(lp192
I178
aI129
aI176
aa(lp193
I177
aI129
aI176
aa(lp194
I177
aI178
aI176
aa(lp195
I177
aI178
aI129
aa(lp196
I177
aI96
aI129
aa(lp197
I177
aI140
aI129
aa(lp198
I177
aI140
aI96
aa(lp199
I172
aI171
aI176
aa(lp200
I170
aI171
aI176
aa(lp201
I170
aI172
aI176
aa(lp202
I170
aI172
aI171
aa(lp203
I170
aI175
aI176
aa(lp204
I170
aI175
aI172
aa(lp205
I177
aI175
aI176
aa(lp206
I170
aI177
aI176
aa(lp207
I170
aI177
aI175
aa(lp208
I177
aI175
aI200
aa(lp209
I170
aI175
aI200
aa(lp210
I170
aI177
aI200
aa(lp211
I170
aI169
aI171
aa(lp212
I170
aI169
aI172
aa(lp213
I169
aI175
aI172
aa(lp214
I170
aI169
aI175
aa(lp215
I170
aI168
aI167
aa(lp216
I170
aI171
aI167
aa(lp217
I170
aI171
aI168
aa(lp218
I169
aI168
aI167
aa(lp219
I170
aI169
aI167
aa(lp220
I170
aI169
aI168
aa(lp221
I169
aI175
aI184
aa(lp222
I170
aI175
aI184
aa(lp223
I170
aI169
aI184
aa(lp224
I143
aI139
aI131
aa(lp225
I153
aI139
aI131
aa(lp226
I153
aI143
aI131
aa(lp227
I153
aI143
aI139
aa(lp228
I186
aI185
aI184
aa(lp229
I153
aI185
aI184
aa(lp230
I153
aI186
aI184
aa(lp231
I153
aI186
aI185
aa(lp232
I186
aI169
aI184
aa(lp233
I153
aI169
aI184
aa(lp234
I153
aI186
aI169
aa(lp235
I9
aI38
aI27
aa(lp236
I89
aI38
aI27
aa(lp237
I89
aI9
aI27
aa(lp238
I89
aI9
aI38
aa(lp239
I11
aI90
aI27
aa(lp240
I89
aI90
aI27
aa(lp241
I89
aI11
aI27
aa(lp242
I89
aI11
aI90
aa(lp243
I73
aI181
aI110
aa(lp244
I73
aI177
aI110
aa(lp245
I73
aI177
aI181
aa(lp246
I73
aI110
aI22
aa(lp247
I73
aI181
aI22
aa(lp248
I73
aI13
aI22
aa(lp249
I73
aI13
aI181
aa(lp250
I73
aI28
aI2
aa(lp251
I73
aI90
aI2
aa(lp252
I73
aI90
aI28
aa(lp253
I73
aI2
aI181
aa(lp254
I73
aI28
aI181
aa(lp255
I13
aI2
aI181
aa(lp256
I73
aI13
aI2
aa(lp257
I192
aI193
aI194
aa(lp258
I191
aI193
aI194
aa(lp259
I191
aI192
aI194
aa(lp260
I191
aI192
aI193
aa(lp261
I191
aI193
aI36
aa(lp262
I191
aI192
aI36
aa(lp263
I38
aI53
aI36
aa(lp264
I52
aI53
aI36
aa(lp265
I52
aI38
aI36
aa(lp266
I52
aI38
aI53
aa(lp267
I51
aI53
aI36
aa(lp268
I52
aI51
aI36
aa(lp269
I52
aI51
aI53
aa(lp270
I51
aI79
aI36
aa(lp271
I52
aI79
aI36
aa(lp272
I52
aI51
aI79
aa(lp273
I200
aI160
aI167
aa(lp274
I163
aI160
aI167
aa(lp275
I163
aI200
aI167
aa(lp276
I163
aI200
aI160
aa(lp277
I163
aI164
aI167
aa(lp278
I163
aI164
aI160
aa(lp279
I133
aI111
aI106
aa(lp280
I133
aI51
aI106
aa(lp281
I133
aI51
aI111
aa(lp282
I197
aI196
aI200
aa(lp283
I197
aI199
aI200
aa(lp284
I197
aI199
aI196
aa(lp285
I196
aI193
aI194
aa(lp286
I197
aI193
aI194
aa(lp287
I197
aI196
aI194
aa(lp288
I197
aI196
aI193
aa(lp289
I197
aI200
aI193
aa(lp290
I89
aI11
aI9
aa(lp291
I76
aI11
aI9
aa(lp292
I76
aI89
aI9
aa(lp293
I76
aI89
aI11
aa(lp294
I76
aI11
aI90
aa(lp295
I76
aI89
aI90
aa(lp296
I103
aI50
aI36
aa(lp297
I103
aI192
aI36
aa(lp298
I103
aI192
aI50
aa(lp299
I116
aI117
aI120
aa(lp300
I116
aI138
aI120
aa(lp301
I116
aI138
aI117
aa(lp302
I116
aI119
aI120
aa(lp303
I116
aI117
aI119
aa(lp304
I111
aI119
aI120
aa(lp305
I116
aI111
aI120
aa(lp306
I116
aI111
aI119
aa(lp307
I116
aI117
aI137
aa(lp308
I116
aI138
aI137
aa(lp309
I116
aI119
aI118
aa(lp310
I116
aI117
aI118
aa(lp311
I116
aI137
aI118
aa(lp312
I166
aI169
aI184
aa(lp313
I166
aI186
aI184
aa(lp314
I166
aI186
aI169
aa(lp315
I170
aI20
aI184
aa(lp316
I166
aI20
aI184
aa(lp317
I166
aI170
aI184
aa(lp318
I166
aI170
aI20
aa(lp319
I166
aI170
aI169
aa(lp320
I185
aI20
aI184
aa(lp321
I166
aI185
aI184
aa(lp322
I166
aI185
aI20
aa(lp323
I166
aI186
aI185
aa(lp324
I186
aI185
aI20
aa(lp325
I166
aI186
aI20
aa(lp326
I166
aI164
aI167
aa(lp327
I166
aI163
aI167
aa(lp328
I166
aI163
aI164
aa(lp329
I170
aI200
aI167
aa(lp330
I166
aI200
aI167
aa(lp331
I166
aI170
aI167
aa(lp332
I166
aI170
aI200
aa(lp333
I166
aI163
aI200
aa(lp334
I166
aI169
aI167
aa(lp335
I166
aI168
aI167
aa(lp336
I166
aI169
aI168
aa(lp337
I59
aI51
aI53
aa(lp338
I59
aI52
aI53
aa(lp339
I59
aI52
aI51
aa(lp340
I59
aI106
aI79
aa(lp341
I59
aI51
aI79
aa(lp342
I59
aI51
aI106
aa(lp343
I127
aI129
aI86
aa(lp344
I85
aI129
aI86
aa(lp345
I85
aI127
aI86
aa(lp346
I85
aI127
aI129
aa(lp347
I38
aI53
aI27
aa(lp348
I47
aI53
aI27
aa(lp349
I47
aI38
aI27
aa(lp350
I47
aI38
aI53
aa(lp351
I47
aI90
aI27
aa(lp352
I47
aI11
aI27
aa(lp353
I47
aI11
aI90
aa(lp354
I93
aI94
aI151
aa(lp355
I93
aI66
aI151
aa(lp356
I93
aI66
aI94
aa(lp357
I7
aI40
aI130
aa(lp358
I12
aI40
aI130
aa(lp359
I12
aI7
aI130
aa(lp360
I12
aI7
aI40
aa(lp361
I29
aI106
aI79
aa(lp362
I91
aI106
aI79
aa(lp363
I91
aI29
aI79
aa(lp364
I91
aI29
aI106
aa(lp365
I91
aI59
aI79
aa(lp366
I91
aI59
aI106
aa(lp367
I91
aI79
aI36
aa(lp368
I91
aI52
aI36
aa(lp369
I91
aI52
aI79
aa(lp370
I52
aI108
aI36
aa(lp371
I91
aI108
aI36
aa(lp372
I91
aI52
aI108
aa(lp373
I91
aI51
aI79
aa(lp374
I91
aI52
aI51
aa(lp375
I91
aI59
aI51
aa(lp376
I67
aI111
aI79
aa(lp377
I67
aI113
aI79
aa(lp378
I67
aI113
aI111
aa(lp379
I29
aI113
aI79
aa(lp380
I67
aI29
aI79
aa(lp381
I67
aI29
aI113
aa(lp382
I67
aI106
aI79
aa(lp383
I67
aI111
aI106
aa(lp384
I67
aI29
aI106
aa(lp385
I29
aI113
aI114
aa(lp386
I67
aI113
aI114
aa(lp387
I67
aI29
aI114
aa(lp388
I74
aI94
aI151
aa(lp389
I74
aI140
aI151
aa(lp390
I74
aI140
aI94
aa(lp391
I45
aI94
aI151
aa(lp392
I74
aI45
aI151
aa(lp393
I74
aI45
aI94
aa(lp394
I74
aI45
aI140
aa(lp395
I74
aI95
aI94
aa(lp396
I74
aI95
aI140
aa(lp397
I74
aI140
aI122
aa(lp398
I74
aI45
aI122
aa(lp399
I75
aI3
aI16
aa(lp400
I75
aI54
aI16
aa(lp401
I75
aI54
aI3
aa(lp402
I75
aI140
aI16
aa(lp403
I75
aI54
aI140
aa(lp404
I75
aI140
aI96
aa(lp405
I75
aI54
aI96
aa(lp406
I75
aI178
aI96
aa(lp407
I75
aI54
aI178
aa(lp408
I54
aI3
aI178
aa(lp409
I75
aI3
aI178
aa(lp410
I74
aI140
aI16
aa(lp411
I75
aI74
aI16
aa(lp412
I75
aI74
aI140
aa(lp413
I75
aI178
aI182
aa(lp414
I75
aI3
aI182
aa(lp415
I95
aI140
aI96
aa(lp416
I75
aI95
aI96
aa(lp417
I75
aI95
aI140
aa(lp418
I75
aI74
aI95
aa(lp419
I75
aI96
aI181
aa(lp420
I75
aI178
aI181
aa(lp421
I178
aI182
aI181
aa(lp422
I75
aI182
aI181
aa(lp423
I75
aI95
aI94
aa(lp424
I75
aI74
aI94
aa(lp425
I75
aI181
aI22
aa(lp426
I75
aI96
aI22
aa(lp427
I179
aI178
aI182
aa(lp428
I179
aI149
aI182
aa(lp429
I179
aI149
aI178
aa(lp430
I179
aI182
aI181
aa(lp431
I179
aI178
aI181
aa(lp432
I175
aI174
aI184
aa(lp433
I179
aI174
aI184
aa(lp434
I179
aI175
aI184
aa(lp435
I179
aI175
aI174
aa(lp436
I179
aI174
aI176
aa(lp437
I179
aI175
aI176
aa(lp438
I149
aI178
aI176
aa(lp439
I179
aI178
aI176
aa(lp440
I179
aI149
aI176
aa(lp441
I149
aI174
aI176
aa(lp442
I179
aI149
aI174
aa(lp443
I179
aI177
aI176
aa(lp444
I179
aI177
aI178
aa(lp445
I179
aI177
aI175
aa(lp446
I150
aI182
aI184
aa(lp447
I179
aI182
aI184
aa(lp448
I179
aI150
aI184
aa(lp449
I179
aI150
aI182
aa(lp450
I179
aI149
aI150
aa(lp451
I174
aI150
aI184
aa(lp452
I179
aI174
aI150
aa(lp453
I149
aI174
aI150
aa(lp454
I144
aI143
aI139
aa(lp455
I144
aI153
aI139
aa(lp456
I144
aI153
aI143
aa(lp457
I57
aI3
aI178
aa(lp458
I57
aI54
aI178
aa(lp459
I57
aI54
aI3
aa(lp460
I57
aI149
aI178
aa(lp461
I57
aI149
aI3
aa(lp462
I57
aI26
aI3
aa(lp463
I57
aI54
aI26
aa(lp464
I57
aI3
aI40
aa(lp465
I57
aI149
aI40
aa(lp466
I57
aI7
aI40
aa(lp467
I57
aI7
aI3
aa(lp468
I7
aI26
aI40
aa(lp469
I57
aI26
aI40
aa(lp470
I57
aI7
aI26
aa(lp471
I62
aI114
aI61
aa(lp472
I69
aI114
aI61
aa(lp473
I69
aI62
aI61
aa(lp474
I69
aI62
aI114
aa(lp475
I69
aI115
aI61
aa(lp476
I69
aI115
aI114
aa(lp477
I115
aI62
aI61
aa(lp478
I69
aI115
aI62
aa(lp479
I69
aI113
aI128
aa(lp480
I69
aI115
aI128
aa(lp481
I69
aI115
aI113
aa(lp482
I69
aI113
aI114
aa(lp483
I14
aI122
aI86
aa(lp484
I14
aI115
aI86
aa(lp485
I14
aI115
aI122
aa(lp486
I14
aI128
aI86
aa(lp487
I14
aI115
aI128
aa(lp488
I14
aI129
aI86
aa(lp489
I14
aI122
aI129
aa(lp490
I14
aI54
aI129
aa(lp491
I14
aI54
aI122
aa(lp492
I14
aI69
aI128
aa(lp493
I14
aI69
aI115
aa(lp494
I69
aI26
aI16
aa(lp495
I14
aI26
aI16
aa(lp496
I14
aI69
aI16
aa(lp497
I14
aI69
aI26
aa(lp498
I14
aI127
aI86
aa(lp499
I14
aI128
aI127
aa(lp500
I14
aI85
aI86
aa(lp501
I14
aI85
aI127
aa(lp502
I85
aI128
aI127
aa(lp503
I14
aI85
aI128
aa(lp504
I180
aI175
aI200
aa(lp505
I180
aI170
aI200
aa(lp506
I180
aI170
aI175
aa(lp507
I180
aI177
aI200
aa(lp508
I180
aI177
aI175
aa(lp509
I180
aI175
aI184
aa(lp510
I180
aI170
aI184
aa(lp511
I180
aI179
aI175
aa(lp512
I180
aI179
aI177
aa(lp513
I180
aI179
aI184
aa(lp514
I180
aI178
aI181
aa(lp515
I180
aI177
aI181
aa(lp516
I180
aI177
aI178
aa(lp517
I180
aI179
aI181
aa(lp518
I180
aI179
aI178
aa(lp519
I180
aI182
aI181
aa(lp520
I180
aI179
aI182
aa(lp521
I153
aI139
aI168
aa(lp522
I165
aI139
aI168
aa(lp523
I165
aI153
aI168
aa(lp524
I165
aI153
aI139
aa(lp525
I153
aI169
aI168
aa(lp526
I165
aI169
aI168
aa(lp527
I165
aI153
aI169
aa(lp528
I165
aI186
aI169
aa(lp529
I165
aI153
aI186
aa(lp530
I165
aI168
aI167
aa(lp531
I165
aI164
aI167
aa(lp532
I165
aI164
aI168
aa(lp533
I165
aI166
aI167
aa(lp534
I165
aI166
aI168
aa(lp535
I165
aI166
aI164
aa(lp536
I165
aI166
aI169
aa(lp537
I165
aI166
aI186
aa(lp538
I165
aI163
aI164
aa(lp539
I165
aI166
aI163
aa(lp540
I100
aI38
aI27
aa(lp541
I100
aI89
aI27
aa(lp542
I100
aI89
aI38
aa(lp543
I100
aI9
aI38
aa(lp544
I100
aI89
aI9
aa(lp545
I42
aI90
aI2
aa(lp546
I42
aI73
aI2
aa(lp547
I42
aI73
aI90
aa(lp548
I19
aI1
aI2
aa(lp549
I42
aI1
aI2
aa(lp550
I42
aI19
aI2
aa(lp551
I42
aI19
aI1
aa(lp552
I19
aI90
aI2
aa(lp553
I42
aI19
aI90
aa(lp554
I42
aI13
aI2
aa(lp555
I42
aI13
aI1
aa(lp556
I42
aI73
aI13
aa(lp557
I73
aI89
aI90
aa(lp558
I42
aI89
aI90
aa(lp559
I42
aI73
aI89
aa(lp560
I42
aI90
aI27
aa(lp561
I42
aI89
aI27
aa(lp562
I159
aI193
aI194
aa(lp563
I159
aI197
aI194
aa(lp564
I159
aI197
aI193
aa(lp565
I200
aI160
aI193
aa(lp566
I159
aI160
aI193
aa(lp567
I159
aI200
aI193
aa(lp568
I159
aI200
aI160
aa(lp569
I159
aI197
aI200
aa(lp570
I159
aI163
aI160
aa(lp571
I159
aI163
aI200
aa(lp572
I197
aI163
aI200
aa(lp573
I159
aI197
aI163
aa(lp574
I46
aI192
aI194
aa(lp575
I46
aI191
aI194
aa(lp576
I46
aI191
aI192
aa(lp577
I158
aI160
aI193
aa(lp578
I158
aI159
aI193
aa(lp579
I158
aI159
aI160
aa(lp580
I159
aI157
aI194
aa(lp581
I158
aI157
aI194
aa(lp582
I158
aI159
aI194
aa(lp583
I158
aI159
aI157
aa(lp584
I158
aI193
aI194
aa(lp585
I158
aI191
aI194
aa(lp586
I158
aI191
aI193
aa(lp587
I46
aI157
aI189
aa(lp588
I188
aI157
aI189
aa(lp589
I188
aI46
aI189
aa(lp590
I188
aI46
aI157
aa(lp591
I161
aI164
aI160
aa(lp592
I161
aI163
aI160
aa(lp593
I161
aI163
aI164
aa(lp594
I161
aI159
aI160
aa(lp595
I161
aI158
aI160
aa(lp596
I161
aI158
aI159
aa(lp597
I161
aI159
aI157
aa(lp598
I161
aI158
aI157
aa(lp599
I198
aI199
aI200
aa(lp600
I198
aI197
aI200
aa(lp601
I198
aI197
aI199
aa(lp602
I198
aI163
aI200
aa(lp603
I198
aI197
aI163
aa(lp604
I166
aI199
aI200
aa(lp605
I198
aI166
aI200
aa(lp606
I198
aI166
aI199
aa(lp607
I198
aI166
aI163
aa(lp608
I198
aI159
aI163
aa(lp609
I198
aI159
aI197
aa(lp610
I198
aI199
aI196
aa(lp611
I198
aI197
aI196
aa(lp612
I166
aI199
aI20
aa(lp613
I198
aI199
aI20
aa(lp614
I198
aI166
aI20
aa(lp615
I198
aI186
aI20
aa(lp616
I198
aI166
aI186
aa(lp617
I188
aI186
aI20
aa(lp618
I198
aI188
aI20
aa(lp619
I198
aI188
aI186
aa(lp620
I198
aI157
aI194
aa(lp621
I198
aI159
aI194
aa(lp622
I198
aI159
aI157
aa(lp623
I198
aI197
aI194
aa(lp624
I76
aI50
aI97
aa(lp625
I18
aI50
aI97
aa(lp626
I18
aI76
aI97
aa(lp627
I18
aI76
aI50
aa(lp628
I18
aI11
aI90
aa(lp629
I18
aI76
aI90
aa(lp630
I18
aI76
aI11
aa(lp631
I18
aI28
aI181
aa(lp632
I18
aI73
aI181
aa(lp633
I18
aI73
aI28
aa(lp634
I18
aI177
aI181
aa(lp635
I18
aI73
aI177
aa(lp636
I76
aI73
aI89
aa(lp637
I18
aI73
aI89
aa(lp638
I18
aI76
aI89
aa(lp639
I18
aI76
aI73
aa(lp640
I18
aI177
aI110
aa(lp641
I18
aI73
aI110
aa(lp642
I76
aI73
aI110
aa(lp643
I18
aI76
aI110
aa(lp644
I18
aI89
aI90
aa(lp645
I18
aI90
aI28
aa(lp646
I18
aI73
aI90
aa(lp647
I48
aI192
aI50
aa(lp648
I48
aI103
aI50
aa(lp649
I48
aI103
aI192
aa(lp650
I48
aI104
aI50
aa(lp651
I48
aI104
aI192
aa(lp652
I104
aI49
aI50
aa(lp653
I48
aI49
aI50
aa(lp654
I48
aI104
aI49
aa(lp655
I104
aI49
aI192
aa(lp656
I48
aI49
aI192
aa(lp657
I46
aI49
aI192
aa(lp658
I48
aI46
aI192
aa(lp659
I48
aI46
aI49
aa(lp660
I48
aI191
aI192
aa(lp661
I48
aI46
aI191
aa(lp662
I48
aI192
aI36
aa(lp663
I48
aI191
aI36
aa(lp664
I48
aI103
aI36
aa(lp665
I47
aI103
aI49
aa(lp666
I48
aI103
aI49
aa(lp667
I48
aI47
aI49
aa(lp668
I48
aI47
aI103
aa(lp669
I31
aI50
aI36
aa(lp670
I31
aI103
aI36
aa(lp671
I31
aI103
aI50
aa(lp672
I9
aI38
aI36
aa(lp673
I31
aI38
aI36
aa(lp674
I31
aI9
aI36
aa(lp675
I31
aI9
aI38
aa(lp676
I76
aI9
aI50
aa(lp677
I31
aI9
aI50
aa(lp678
I31
aI76
aI50
aa(lp679
I31
aI76
aI9
aa(lp680
I103
aI76
aI50
aa(lp681
I31
aI103
aI76
aa(lp682
I31
aI11
aI9
aa(lp683
I31
aI76
aI11
aa(lp684
I103
aI76
aI11
aa(lp685
I31
aI103
aI11
aa(lp686
I31
aI53
aI36
aa(lp687
I31
aI38
aI53
aa(lp688
I31
aI47
aI53
aa(lp689
I31
aI47
aI38
aa(lp690
I103
aI53
aI36
aa(lp691
I31
aI103
aI53
aa(lp692
I47
aI103
aI53
aa(lp693
I31
aI47
aI103
aa(lp694
I31
aI38
aI27
aa(lp695
I31
aI9
aI27
aa(lp696
I31
aI47
aI27
aa(lp697
I47
aI103
aI11
aa(lp698
I31
aI47
aI11
aa(lp699
I31
aI11
aI27
aa(lp700
I31
aI89
aI27
aa(lp701
I31
aI89
aI9
aa(lp702
I31
aI89
aI11
aa(lp703
I134
aI139
aI120
aa(lp704
I134
aI138
aI120
aa(lp705
I134
aI138
aI139
aa(lp706
I134
aI143
aI120
aa(lp707
I134
aI143
aI139
aa(lp708
I134
aI139
aI131
aa(lp709
I134
aI143
aI131
aa(lp710
I134
aI153
aI131
aa(lp711
I134
aI153
aI139
aa(lp712
I132
aI153
aI131
aa(lp713
I134
aI132
aI131
aa(lp714
I134
aI132
aI153
aa(lp715
I134
aI165
aI139
aa(lp716
I134
aI165
aI153
aa(lp717
I58
aI49
aI20
aa(lp718
I58
aI87
aI20
aa(lp719
I58
aI87
aI49
aa(lp720
I87
aI15
aI20
aa(lp721
I58
aI15
aI20
aa(lp722
I58
aI87
aI15
aa(lp723
I47
aI32
aI49
aa(lp724
I58
aI32
aI49
aa(lp725
I58
aI47
aI49
aa(lp726
I58
aI47
aI32
aa(lp727
I47
aI32
aI19
aa(lp728
I58
aI32
aI19
aa(lp729
I58
aI47
aI19
aa(lp730
I87
aI15
aI28
aa(lp731
I58
aI15
aI28
aa(lp732
I58
aI87
aI28
aa(lp733
I58
aI90
aI28
aa(lp734
I58
aI90
aI15
aa(lp735
I58
aI15
aI2
aa(lp736
I58
aI90
aI2
aa(lp737
I19
aI15
aI2
aa(lp738
I58
aI19
aI2
aa(lp739
I58
aI19
aI15
aa(lp740
I58
aI19
aI90
aa(lp741
I47
aI11
aI49
aa(lp742
I58
aI11
aI49
aa(lp743
I58
aI47
aI11
aa(lp744
I58
aI11
aI90
aa(lp745
I58
aI47
aI90
aa(lp746
I58
aI90
aI27
aa(lp747
I58
aI47
aI27
aa(lp748
I41
aI32
aI19
aa(lp749
I41
aI47
aI19
aa(lp750
I41
aI47
aI32
aa(lp751
I41
aI53
aI27
aa(lp752
I41
aI47
aI27
aa(lp753
I41
aI47
aI53
aa(lp754
I41
aI58
aI27
aa(lp755
I41
aI58
aI47
aa(lp756
I41
aI58
aI19
aa(lp757
I41
aI19
aI1
aa(lp758
I41
aI42
aI1
aa(lp759
I41
aI42
aI19
aa(lp760
I43
aI42
aI1
aa(lp761
I41
aI43
aI1
aa(lp762
I41
aI43
aI42
aa(lp763
I41
aI90
aI27
aa(lp764
I41
aI58
aI90
aa(lp765
I41
aI19
aI90
aa(lp766
I41
aI42
aI27
aa(lp767
I41
aI42
aI90
aa(lp768
I132
aI32
aI189
aa(lp769
I55
aI32
aI189
aa(lp770
I55
aI132
aI189
aa(lp771
I55
aI132
aI32
aa(lp772
I132
aI133
aI106
aa(lp773
I55
aI133
aI106
aa(lp774
I55
aI132
aI106
aa(lp775
I55
aI132
aI133
aa(lp776
I132
aI133
aI189
aa(lp777
I55
aI133
aI189
aa(lp778
I113
aI127
aI123
aa(lp779
I83
aI127
aI123
aa(lp780
I83
aI113
aI123
aa(lp781
I83
aI113
aI127
aa(lp782
I83
aI128
aI127
aa(lp783
I83
aI113
aI128
aa(lp784
I126
aI127
aI129
aa(lp785
I126
aI85
aI129
aa(lp786
I126
aI85
aI127
aa(lp787
I126
aI127
aI123
aa(lp788
I126
aI83
aI123
aa(lp789
I126
aI83
aI127
aa(lp790
I83
aI85
aI127
aa(lp791
I126
aI83
aI85
aa(lp792
I126
aI118
aI123
aa(lp793
I126
aI121
aI123
aa(lp794
I126
aI121
aI118
aa(lp795
I127
aI118
aI123
aa(lp796
I126
aI127
aI118
aa(lp797
I82
aI94
aI151
aa(lp798
I82
aI93
aI151
aa(lp799
I82
aI93
aI94
aa(lp800
I82
aI45
aI151
aa(lp801
I82
aI45
aI94
aa(lp802
I72
aI66
aI94
aa(lp803
I72
aI93
aI94
aa(lp804
I72
aI93
aI66
aa(lp805
I72
aI82
aI94
aa(lp806
I72
aI82
aI93
aa(lp807
I13
aI185
aI150
aa(lp808
I8
aI185
aI150
aa(lp809
I8
aI13
aI150
aa(lp810
I8
aI13
aI185
aa(lp811
I8
aI1
aI185
aa(lp812
I8
aI13
aI1
aa(lp813
I13
aI150
aI182
aa(lp814
I8
aI150
aI182
aa(lp815
I8
aI13
aI182
aa(lp816
I78
aI111
aI106
aa(lp817
I78
aI133
aI106
aa(lp818
I78
aI133
aI111
aa(lp819
I78
aI67
aI106
aa(lp820
I78
aI67
aI111
aa(lp821
I78
aI132
aI106
aa(lp822
I78
aI132
aI133
aa(lp823
I60
aI29
aI114
aa(lp824
I60
aI67
aI114
aa(lp825
I60
aI67
aI29
aa(lp826
I34
aI29
aI114
aa(lp827
I60
aI34
aI114
aa(lp828
I60
aI34
aI29
aa(lp829
I60
aI29
aI106
aa(lp830
I60
aI67
aI106
aa(lp831
I34
aI29
aI106
aa(lp832
I60
aI34
aI106
aa(lp833
I60
aI78
aI106
aa(lp834
I60
aI78
aI67
aa(lp835
I60
aI132
aI106
aa(lp836
I60
aI78
aI132
aa(lp837
I60
aI55
aI106
aa(lp838
I60
aI55
aI132
aa(lp839
I17
aI74
aI16
aa(lp840
I17
aI75
aI16
aa(lp841
I17
aI75
aI74
aa(lp842
I74
aI34
aI62
aa(lp843
I17
aI34
aI62
aa(lp844
I17
aI74
aI62
aa(lp845
I17
aI74
aI34
aa(lp846
I12
aI7
aI16
aa(lp847
I17
aI7
aI16
aa(lp848
I17
aI12
aI16
aa(lp849
I17
aI12
aI7
aa(lp850
I55
aI41
aI43
aa(lp851
I88
aI41
aI43
aa(lp852
I88
aI55
aI43
aa(lp853
I88
aI55
aI41
aa(lp854
I70
aI29
aI106
aa(lp855
I70
aI34
aI106
aa(lp856
I70
aI34
aI29
aa(lp857
I70
aI91
aI106
aa(lp858
I70
aI91
aI29
aa(lp859
I65
aI91
aI29
aa(lp860
I70
aI65
aI29
aa(lp861
I70
aI65
aI91
aa(lp862
I70
aI59
aI106
aa(lp863
I70
aI91
aI59
aa(lp864
I65
aI91
aI59
aa(lp865
I70
aI65
aI59
aa(lp866
I88
aI65
aI59
aa(lp867
I70
aI88
aI59
aa(lp868
I70
aI88
aI65
aa(lp869
I88
aI65
aI71
aa(lp870
I70
aI65
aI71
aa(lp871
I70
aI88
aI71
aa(lp872
I88
aI43
aI71
aa(lp873
I70
aI43
aI71
aa(lp874
I70
aI88
aI43
aa(lp875
I70
aI60
aI106
aa(lp876
I70
aI60
aI34
aa(lp877
I148
aI40
aI150
aa(lp878
I148
aI149
aI150
aa(lp879
I148
aI149
aI40
aa(lp880
I40
aI131
aI130
aa(lp881
I148
aI131
aI130
aa(lp882
I148
aI40
aI130
aa(lp883
I148
aI40
aI131
aa(lp884
I148
aI143
aI131
aa(lp885
I148
aI153
aI131
aa(lp886
I148
aI153
aI143
aa(lp887
I148
aI144
aI143
aa(lp888
I148
aI144
aI153
aa(lp889
I148
aI57
aI40
aa(lp890
I148
aI57
aI149
aa(lp891
I141
aI139
aI142
aa(lp892
I141
aI143
aI142
aa(lp893
I141
aI143
aI139
aa(lp894
I144
aI143
aI142
aa(lp895
I141
aI144
aI142
aa(lp896
I141
aI144
aI143
aa(lp897
I141
aI144
aI139
aa(lp898
I141
aI138
aI142
aa(lp899
I141
aI138
aI139
aa(lp900
I141
aI171
aI168
aa(lp901
I141
aI172
aI168
aa(lp902
I141
aI172
aI171
aa(lp903
I171
aI137
aI142
aa(lp904
I141
aI137
aI142
aa(lp905
I141
aI171
aI142
aa(lp906
I141
aI171
aI137
aa(lp907
I141
aI138
aI137
aa(lp908
I141
aI139
aI168
aa(lp909
I141
aI138
aI168
aa(lp910
I141
aI168
aI137
aa(lp911
I56
aI178
aI129
aa(lp912
I56
aI54
aI129
aa(lp913
I56
aI54
aI178
aa(lp914
I56
aI57
aI178
aa(lp915
I56
aI57
aI54
aa(lp916
I56
aI129
aI176
aa(lp917
I56
aI178
aI176
aa(lp918
I56
aI54
aI26
aa(lp919
I56
aI57
aI26
aa(lp920
I56
aI14
aI129
aa(lp921
I56
aI14
aI54
aa(lp922
I57
aI85
aI26
aa(lp923
I56
aI85
aI26
aa(lp924
I56
aI57
aI85
aa(lp925
I14
aI85
aI26
aa(lp926
I56
aI14
aI26
aa(lp927
I56
aI14
aI85
aa(lp928
I56
aI26
aI16
aa(lp929
I56
aI54
aI16
aa(lp930
I56
aI14
aI16
aa(lp931
I14
aI54
aI16
aa(lp932
I56
aI129
aI86
aa(lp933
I56
aI85
aI86
aa(lp934
I56
aI85
aI129
aa(lp935
I56
aI14
aI86
aa(lp936
I147
aI178
aI176
aa(lp937
I147
aI149
aI176
aa(lp938
I147
aI149
aI178
aa(lp939
I147
aI57
aI178
aa(lp940
I147
aI57
aI149
aa(lp941
I147
aI56
aI176
aa(lp942
I147
aI56
aI178
aa(lp943
I147
aI56
aI57
aa(lp944
I147
aI174
aI176
aa(lp945
I147
aI149
aI174
aa(lp946
I147
aI148
aI149
aa(lp947
I147
aI148
aI57
aa(lp948
I147
aI129
aI176
aa(lp949
I147
aI56
aI129
aa(lp950
I148
aI149
aI174
aa(lp951
I147
aI148
aI174
aa(lp952
I148
aI144
aI174
aa(lp953
I147
aI144
aI174
aa(lp954
I147
aI148
aI144
aa(lp955
I147
aI57
aI40
aa(lp956
I147
aI148
aI40
aa(lp957
I147
aI144
aI143
aa(lp958
I147
aI148
aI143
aa(lp959
I24
aI34
aI62
aa(lp960
I24
aI17
aI62
aa(lp961
I24
aI17
aI34
aa(lp962
I17
aI34
aI12
aa(lp963
I24
aI34
aI12
aa(lp964
I24
aI17
aI12
aa(lp965
I34
aI62
aI114
aa(lp966
I24
aI62
aI114
aa(lp967
I24
aI34
aI114
aa(lp968
I24
aI69
aI114
aa(lp969
I24
aI69
aI62
aa(lp970
I24
aI12
aI16
aa(lp971
I24
aI17
aI16
aa(lp972
I24
aI26
aI16
aa(lp973
I24
aI69
aI16
aa(lp974
I24
aI69
aI26
aa(lp975
I24
aI7
aI16
aa(lp976
I24
aI7
aI26
aa(lp977
I24
aI12
aI7
aa(lp978
I24
aI40
aI130
aa(lp979
I24
aI12
aI130
aa(lp980
I24
aI12
aI40
aa(lp981
I24
aI26
aI40
aa(lp982
I24
aI7
aI40
aa(lp983
I68
aI113
aI114
aa(lp984
I68
aI67
aI114
aa(lp985
I68
aI67
aI113
aa(lp986
I68
aI69
aI114
aa(lp987
I68
aI24
aI114
aa(lp988
I68
aI24
aI69
aa(lp989
I68
aI60
aI114
aa(lp990
I68
aI60
aI67
aa(lp991
I68
aI34
aI114
aa(lp992
I68
aI60
aI34
aa(lp993
I68
aI24
aI34
aa(lp994
I24
aI60
aI34
aa(lp995
I68
aI24
aI60
aa(lp996
I77
aI170
aI200
aa(lp997
I77
aI180
aI200
aa(lp998
I77
aI180
aI170
aa(lp999
I77
aI170
aI20
aa(lp1000
I77
aI166
aI20
aa(lp1001
I77
aI166
aI170
aa(lp1002
I77
aI166
aI200
aa(lp1003
I77
aI20
aI184
aa(lp1004
I77
aI170
aI184
aa(lp1005
I77
aI180
aI184
aa(lp1006
I77
aI199
aI20
aa(lp1007
I77
aI166
aI199
aa(lp1008
I77
aI199
aI200
aa(lp1009
I77
aI87
aI20
aa(lp1010
I77
aI104
aI20
aa(lp1011
I77
aI104
aI87
aa(lp1012
I104
aI199
aI20
aa(lp1013
I77
aI104
aI199
aa(lp1014
I77
aI200
aI97
aa(lp1015
I77
aI199
aI97
aa(lp1016
I77
aI177
aI181
aa(lp1017
I77
aI180
aI181
aa(lp1018
I77
aI180
aI177
aa(lp1019
I177
aI200
aI97
aa(lp1020
I77
aI177
aI97
aa(lp1021
I77
aI177
aI200
aa(lp1022
I104
aI87
aI97
aa(lp1023
I77
aI87
aI97
aa(lp1024
I77
aI104
aI97
aa(lp1025
I77
aI28
aI181
aa(lp1026
I77
aI15
aI181
aa(lp1027
I77
aI15
aI28
aa(lp1028
I77
aI15
aI20
aa(lp1029
I77
aI87
aI15
aa(lp1030
I77
aI87
aI28
aa(lp1031
I77
aI18
aI181
aa(lp1032
I77
aI18
aI28
aa(lp1033
I77
aI18
aI177
aa(lp1034
I18
aI87
aI97
aa(lp1035
I77
aI18
aI97
aa(lp1036
I77
aI18
aI87
aa(lp1037
I18
aI87
aI28
aa(lp1038
I18
aI177
aI97
aa(lp1039
I183
aI182
aI184
aa(lp1040
I183
aI179
aI184
aa(lp1041
I183
aI179
aI182
aa(lp1042
I183
aI180
aI184
aa(lp1043
I183
aI180
aI179
aa(lp1044
I183
aI180
aI182
aa(lp1045
I183
aI182
aI181
aa(lp1046
I183
aI180
aI181
aa(lp1047
I183
aI150
aI184
aa(lp1048
I183
aI150
aI182
aa(lp1049
I185
aI150
aI184
aa(lp1050
I183
aI185
aI184
aa(lp1051
I183
aI185
aI150
aa(lp1052
I183
aI20
aI184
aa(lp1053
I183
aI185
aI20
aa(lp1054
I15
aI185
aI20
aa(lp1055
I183
aI15
aI20
aa(lp1056
I183
aI15
aI185
aa(lp1057
I183
aI2
aI181
aa(lp1058
I183
aI15
aI181
aa(lp1059
I183
aI15
aI2
aa(lp1060
I15
aI185
aI2
aa(lp1061
I183
aI185
aI2
aa(lp1062
I183
aI13
aI182
aa(lp1063
I183
aI13
aI150
aa(lp1064
I183
aI13
aI185
aa(lp1065
I183
aI77
aI181
aa(lp1066
I183
aI77
aI15
aa(lp1067
I183
aI77
aI20
aa(lp1068
I183
aI77
aI180
aa(lp1069
I183
aI77
aI184
aa(lp1070
I183
aI13
aI181
aa(lp1071
I183
aI13
aI2
aa(lp1072
I190
aI157
aI189
aa(lp1073
I190
aI46
aI189
aa(lp1074
I190
aI46
aI157
aa(lp1075
I158
aI191
aI51
aa(lp1076
I190
aI191
aI51
aa(lp1077
I190
aI158
aI51
aa(lp1078
I190
aI158
aI191
aa(lp1079
I190
aI191
aI194
aa(lp1080
I190
aI46
aI194
aa(lp1081
I190
aI46
aI191
aa(lp1082
I190
aI158
aI194
aa(lp1083
I46
aI157
aI194
aa(lp1084
I190
aI157
aI194
aa(lp1085
I190
aI158
aI157
aa(lp1086
I158
aI51
aI111
aa(lp1087
I190
aI51
aI111
aa(lp1088
I190
aI158
aI111
aa(lp1089
I46
aI32
aI189
aa(lp1090
I190
aI32
aI189
aa(lp1091
I190
aI46
aI32
aa(lp1092
I102
aI47
aI32
aa(lp1093
I102
aI41
aI32
aa(lp1094
I102
aI41
aI47
aa(lp1095
I102
aI32
aI49
aa(lp1096
I102
aI47
aI49
aa(lp1097
I46
aI32
aI49
aa(lp1098
I102
aI46
aI49
aa(lp1099
I102
aI46
aI32
aa(lp1100
I102
aI103
aI53
aa(lp1101
I102
aI47
aI53
aa(lp1102
I102
aI47
aI103
aa(lp1103
I102
aI48
aI103
aa(lp1104
I102
aI48
aI47
aa(lp1105
I102
aI46
aI191
aa(lp1106
I102
aI48
aI191
aa(lp1107
I102
aI48
aI46
aa(lp1108
I102
aI48
aI49
aa(lp1109
I102
aI53
aI36
aa(lp1110
I102
aI103
aI36
aa(lp1111
I102
aI48
aI36
aa(lp1112
I102
aI191
aI36
aa(lp1113
I102
aI51
aI36
aa(lp1114
I102
aI51
aI53
aa(lp1115
I191
aI51
aI36
aa(lp1116
I102
aI191
aI51
aa(lp1117
I187
aI185
aI20
aa(lp1118
I187
aI15
aI20
aa(lp1119
I187
aI15
aI185
aa(lp1120
I187
aI186
aI20
aa(lp1121
I187
aI186
aI185
aa(lp1122
I187
aI185
aI2
aa(lp1123
I187
aI15
aI2
aa(lp1124
I187
aI19
aI2
aa(lp1125
I187
aI19
aI15
aa(lp1126
I187
aI1
aI2
aa(lp1127
I187
aI1
aI185
aa(lp1128
I187
aI19
aI1
aa(lp1129
I35
aI188
aI20
aa(lp1130
I35
aI198
aI20
aa(lp1131
I35
aI198
aI188
aa(lp1132
I35
aI32
aI49
aa(lp1133
I35
aI46
aI49
aa(lp1134
I35
aI46
aI32
aa(lp1135
I35
aI32
aI189
aa(lp1136
I35
aI46
aI189
aa(lp1137
I188
aI32
aI189
aa(lp1138
I35
aI188
aI189
aa(lp1139
I35
aI188
aI32
aa(lp1140
I35
aI188
aI46
aa(lp1141
I35
aI49
aI20
aa(lp1142
I35
aI58
aI20
aa(lp1143
I35
aI58
aI49
aa(lp1144
I35
aI58
aI32
aa(lp1145
I35
aI15
aI20
aa(lp1146
I35
aI58
aI15
aa(lp1147
I35
aI187
aI20
aa(lp1148
I35
aI187
aI15
aa(lp1149
I187
aI188
aI32
aa(lp1150
I35
aI187
aI32
aa(lp1151
I35
aI187
aI188
aa(lp1152
I35
aI19
aI15
aa(lp1153
I35
aI58
aI19
aa(lp1154
I35
aI32
aI19
aa(lp1155
I35
aI186
aI20
aa(lp1156
I35
aI188
aI186
aa(lp1157
I35
aI187
aI186
aa(lp1158
I187
aI188
aI186
aa(lp1159
I35
aI187
aI19
aa(lp1160
I187
aI32
aI19
aa(lp1161
I198
aI188
aI157
aa(lp1162
I162
aI188
aI157
aa(lp1163
I162
aI198
aI157
aa(lp1164
I162
aI198
aI188
aa(lp1165
I162
aI159
aI157
aa(lp1166
I162
aI161
aI157
aa(lp1167
I162
aI161
aI159
aa(lp1168
I162
aI198
aI159
aa(lp1169
I162
aI188
aI186
aa(lp1170
I162
aI198
aI186
aa(lp1171
I162
aI159
aI163
aa(lp1172
I162
aI198
aI163
aa(lp1173
I162
aI163
aI164
aa(lp1174
I162
aI165
aI164
aa(lp1175
I162
aI165
aI163
aa(lp1176
I162
aI161
aI164
aa(lp1177
I162
aI161
aI163
aa(lp1178
I161
aI165
aI164
aa(lp1179
I162
aI161
aI165
aa(lp1180
I162
aI166
aI163
aa(lp1181
I162
aI165
aI166
aa(lp1182
I162
aI198
aI166
aa(lp1183
I162
aI166
aI186
aa(lp1184
I162
aI165
aI186
aa(lp1185
I162
aI163
aI160
aa(lp1186
I162
aI159
aI160
aa(lp1187
I162
aI161
aI160
aa(lp1188
I10
aI87
aI97
aa(lp1189
I10
aI18
aI97
aa(lp1190
I10
aI18
aI87
aa(lp1191
I10
aI104
aI97
aa(lp1192
I10
aI104
aI87
aa(lp1193
I10
aI87
aI49
aa(lp1194
I10
aI104
aI49
aa(lp1195
I10
aI50
aI97
aa(lp1196
I10
aI18
aI50
aa(lp1197
I10
aI87
aI28
aa(lp1198
I10
aI18
aI28
aa(lp1199
I10
aI104
aI50
aa(lp1200
I10
aI49
aI50
aa(lp1201
I10
aI58
aI28
aa(lp1202
I10
aI58
aI87
aa(lp1203
I10
aI58
aI49
aa(lp1204
I10
aI76
aI50
aa(lp1205
I10
aI18
aI76
aa(lp1206
I10
aI76
aI11
aa(lp1207
I10
aI18
aI11
aa(lp1208
I10
aI90
aI28
aa(lp1209
I10
aI58
aI90
aa(lp1210
I10
aI18
aI90
aa(lp1211
I10
aI11
aI90
aa(lp1212
I10
aI48
aI50
aa(lp1213
I10
aI48
aI49
aa(lp1214
I10
aI103
aI50
aa(lp1215
I10
aI48
aI103
aa(lp1216
I10
aI103
aI49
aa(lp1217
I10
aI103
aI76
aa(lp1218
I10
aI103
aI11
aa(lp1219
I10
aI11
aI49
aa(lp1220
I10
aI47
aI49
aa(lp1221
I10
aI47
aI11
aa(lp1222
I10
aI47
aI103
aa(lp1223
I10
aI58
aI11
aa(lp1224
I81
aI138
aI120
aa(lp1225
I81
aI116
aI120
aa(lp1226
I81
aI116
aI138
aa(lp1227
I81
aI134
aI120
aa(lp1228
I81
aI134
aI138
aa(lp1229
I134
aI116
aI138
aa(lp1230
I81
aI134
aI116
aa(lp1231
I81
aI111
aI120
aa(lp1232
I81
aI116
aI111
aa(lp1233
I78
aI111
aI120
aa(lp1234
I81
aI78
aI120
aa(lp1235
I81
aI78
aI111
aa(lp1236
I81
aI133
aI111
aa(lp1237
I81
aI78
aI133
aa(lp1238
I81
aI132
aI131
aa(lp1239
I81
aI134
aI131
aa(lp1240
I81
aI134
aI132
aa(lp1241
I78
aI132
aI131
aa(lp1242
I81
aI78
aI131
aa(lp1243
I81
aI78
aI132
aa(lp1244
I134
aI132
aI133
aa(lp1245
I81
aI132
aI133
aa(lp1246
I81
aI134
aI133
aa(lp1247
I143
aI131
aI120
aa(lp1248
I81
aI131
aI120
aa(lp1249
I81
aI143
aI120
aa(lp1250
I81
aI143
aI131
aa(lp1251
I81
aI134
aI143
aa(lp1252
I136
aI138
aI137
aa(lp1253
I136
aI116
aI137
aa(lp1254
I136
aI116
aI138
aa(lp1255
I136
aI139
aI137
aa(lp1256
I136
aI138
aI139
aa(lp1257
I136
aI134
aI139
aa(lp1258
I136
aI134
aI138
aa(lp1259
I136
aI168
aI137
aa(lp1260
I136
aI139
aI168
aa(lp1261
I136
aI164
aI137
aa(lp1262
I136
aI164
aI168
aa(lp1263
I136
aI165
aI139
aa(lp1264
I136
aI134
aI165
aa(lp1265
I136
aI165
aI168
aa(lp1266
I136
aI165
aI164
aa(lp1267
I136
aI160
aI137
aa(lp1268
I136
aI164
aI160
aa(lp1269
I136
aI161
aI160
aa(lp1270
I136
aI161
aI164
aa(lp1271
I136
aI161
aI165
aa(lp1272
I134
aI161
aI165
aa(lp1273
I136
aI134
aI161
aa(lp1274
I155
aI188
aI186
aa(lp1275
I155
aI187
aI186
aa(lp1276
I155
aI187
aI188
aa(lp1277
I155
aI157
aI189
aa(lp1278
I155
aI188
aI189
aa(lp1279
I155
aI188
aI157
aa(lp1280
I155
aI153
aI186
aa(lp1281
I155
aI165
aI186
aa(lp1282
I155
aI165
aI153
aa(lp1283
I155
aI134
aI153
aa(lp1284
I155
aI134
aI165
aa(lp1285
I155
aI162
aI186
aa(lp1286
I155
aI162
aI165
aa(lp1287
I155
aI162
aI188
aa(lp1288
I155
aI161
aI165
aa(lp1289
I155
aI134
aI161
aa(lp1290
I155
aI162
aI157
aa(lp1291
I155
aI161
aI157
aa(lp1292
I155
aI162
aI161
aa(lp1293
I156
aI158
aI157
aa(lp1294
I156
aI161
aI157
aa(lp1295
I156
aI161
aI158
aa(lp1296
I155
aI134
aI133
aa(lp1297
I156
aI134
aI133
aa(lp1298
I156
aI155
aI133
aa(lp1299
I156
aI155
aI134
aa(lp1300
I156
aI134
aI161
aa(lp1301
I156
aI155
aI161
aa(lp1302
I156
aI190
aI157
aa(lp1303
I156
aI190
aI158
aa(lp1304
I156
aI155
aI157
aa(lp1305
I156
aI157
aI189
aa(lp1306
I156
aI190
aI189
aa(lp1307
I156
aI158
aI111
aa(lp1308
I156
aI190
aI111
aa(lp1309
I156
aI155
aI189
aa(lp1310
I156
aI51
aI111
aa(lp1311
I156
aI133
aI111
aa(lp1312
I156
aI133
aI51
aa(lp1313
I156
aI190
aI51
aa(lp1314
I72
aI93
aI71
aa(lp1315
I109
aI93
aI71
aa(lp1316
I109
aI72
aI71
aa(lp1317
I109
aI72
aI93
aa(lp1318
I84
aI128
aI127
aa(lp1319
I84
aI85
aI127
aa(lp1320
I84
aI85
aI128
aa(lp1321
I84
aI83
aI127
aa(lp1322
I84
aI83
aI128
aa(lp1323
I84
aI83
aI85
aa(lp1324
I84
aI14
aI128
aa(lp1325
I84
aI14
aI85
aa(lp1326
I84
aI85
aI26
aa(lp1327
I84
aI14
aI26
aa(lp1328
I84
aI69
aI128
aa(lp1329
I84
aI14
aI69
aa(lp1330
I84
aI69
aI26
aa(lp1331
I84
aI24
aI26
aa(lp1332
I84
aI24
aI69
aa(lp1333
I84
aI68
aI69
aa(lp1334
I84
aI68
aI24
aa(lp1335
I84
aI126
aI85
aa(lp1336
I84
aI126
aI83
aa(lp1337
I84
aI26
aI40
aa(lp1338
I84
aI24
aI40
aa(lp1339
I82
aI93
aI108
aa(lp1340
I101
aI93
aI108
aa(lp1341
I101
aI82
aI108
aa(lp1342
I101
aI82
aI93
aa(lp1343
I82
aI65
aI108
aa(lp1344
I101
aI65
aI108
aa(lp1345
I101
aI82
aI65
aa(lp1346
I101
aI93
aI71
aa(lp1347
I101
aI72
aI71
aa(lp1348
I101
aI72
aI93
aa(lp1349
I72
aI82
aI71
aa(lp1350
I101
aI82
aI71
aa(lp1351
I101
aI72
aI82
aa(lp1352
I101
aI109
aI71
aa(lp1353
I101
aI109
aI93
aa(lp1354
I107
aI114
aI61
aa(lp1355
I107
aI62
aI61
aa(lp1356
I107
aI62
aI114
aa(lp1357
I107
aI45
aI61
aa(lp1358
I107
aI45
aI62
aa(lp1359
I82
aI108
aI151
aa(lp1360
I107
aI108
aI151
aa(lp1361
I107
aI82
aI151
aa(lp1362
I107
aI82
aI108
aa(lp1363
I107
aI45
aI151
aa(lp1364
I107
aI82
aI45
aa(lp1365
I107
aI61
aI151
aa(lp1366
I91
aI108
aI79
aa(lp1367
I107
aI108
aI79
aa(lp1368
I107
aI91
aI79
aa(lp1369
I107
aI91
aI108
aa(lp1370
I92
aI65
aI71
aa(lp1371
I92
aI70
aI71
aa(lp1372
I92
aI70
aI65
aa(lp1373
I92
aI82
aI71
aa(lp1374
I92
aI72
aI71
aa(lp1375
I92
aI72
aI82
aa(lp1376
I101
aI65
aI71
aa(lp1377
I92
aI101
aI71
aa(lp1378
I92
aI101
aI65
aa(lp1379
I92
aI101
aI82
aa(lp1380
I92
aI82
aI65
aa(lp1381
I92
aI34
aI62
aa(lp1382
I92
aI74
aI62
aa(lp1383
I92
aI74
aI34
aa(lp1384
I92
aI17
aI34
aa(lp1385
I92
aI17
aI74
aa(lp1386
I72
aI74
aI94
aa(lp1387
I92
aI74
aI94
aa(lp1388
I92
aI72
aI94
aa(lp1389
I92
aI72
aI74
aa(lp1390
I92
aI82
aI94
aa(lp1391
I92
aI62
aI114
aa(lp1392
I92
aI34
aI114
aa(lp1393
I74
aI45
aI62
aa(lp1394
I92
aI45
aI62
aa(lp1395
I92
aI74
aI45
aa(lp1396
I92
aI107
aI62
aa(lp1397
I92
aI107
aI45
aa(lp1398
I92
aI82
aI45
aa(lp1399
I92
aI107
aI82
aa(lp1400
I92
aI65
aI108
aa(lp1401
I92
aI82
aI108
aa(lp1402
I107
aI65
aI108
aa(lp1403
I92
aI107
aI108
aa(lp1404
I92
aI107
aI65
aa(lp1405
I92
aI45
aI94
aa(lp1406
I8
aI13
aI22
aa(lp1407
I23
aI13
aI22
aa(lp1408
I23
aI8
aI22
aa(lp1409
I23
aI8
aI13
aa(lp1410
I23
aI110
aI22
aa(lp1411
I23
aI73
aI22
aa(lp1412
I23
aI73
aI110
aa(lp1413
I23
aI96
aI22
aa(lp1414
I23
aI96
aI110
aa(lp1415
I23
aI75
aI22
aa(lp1416
I23
aI75
aI96
aa(lp1417
I95
aI96
aI110
aa(lp1418
I23
aI95
aI110
aa(lp1419
I23
aI95
aI96
aa(lp1420
I95
aI66
aI110
aa(lp1421
I23
aI66
aI110
aa(lp1422
I23
aI95
aI66
aa(lp1423
I23
aI75
aI95
aa(lp1424
I23
aI66
aI94
aa(lp1425
I23
aI95
aI94
aa(lp1426
I23
aI72
aI94
aa(lp1427
I23
aI72
aI66
aa(lp1428
I23
aI75
aI94
aa(lp1429
I23
aI74
aI94
aa(lp1430
I23
aI75
aI74
aa(lp1431
I23
aI17
aI74
aa(lp1432
I23
aI17
aI75
aa(lp1433
I63
aI74
aI16
aa(lp1434
I63
aI17
aI16
aa(lp1435
I63
aI17
aI74
aa(lp1436
I63
aI74
aI62
aa(lp1437
I63
aI17
aI62
aa(lp1438
I63
aI24
aI16
aa(lp1439
I63
aI24
aI17
aa(lp1440
I63
aI24
aI62
aa(lp1441
I63
aI122
aI16
aa(lp1442
I63
aI140
aI16
aa(lp1443
I63
aI140
aI122
aa(lp1444
I63
aI74
aI140
aa(lp1445
I63
aI74
aI122
aa(lp1446
I63
aI62
aI122
aa(lp1447
I63
aI45
aI122
aa(lp1448
I63
aI45
aI62
aa(lp1449
I63
aI74
aI45
aa(lp1450
I63
aI69
aI16
aa(lp1451
I63
aI24
aI69
aa(lp1452
I63
aI69
aI62
aa(lp1453
I63
aI115
aI122
aa(lp1454
I63
aI14
aI122
aa(lp1455
I63
aI14
aI115
aa(lp1456
I63
aI115
aI62
aa(lp1457
I63
aI69
aI115
aa(lp1458
I63
aI122
aI61
aa(lp1459
I63
aI62
aI61
aa(lp1460
I63
aI115
aI61
aa(lp1461
I63
aI54
aI16
aa(lp1462
I63
aI54
aI122
aa(lp1463
I63
aI14
aI16
aa(lp1464
I63
aI14
aI54
aa(lp1465
I63
aI14
aI69
aa(lp1466
I4
aI12
aI7
aa(lp1467
I4
aI17
aI7
aa(lp1468
I4
aI17
aI12
aa(lp1469
I17
aI8
aI12
aa(lp1470
I4
aI8
aI12
aa(lp1471
I4
aI17
aI8
aa(lp1472
I4
aI17
aI75
aa(lp1473
I4
aI23
aI75
aa(lp1474
I4
aI23
aI17
aa(lp1475
I23
aI17
aI8
aa(lp1476
I4
aI23
aI8
aa(lp1477
I4
aI75
aI22
aa(lp1478
I4
aI23
aI22
aa(lp1479
I4
aI8
aI22
aa(lp1480
I4
aI3
aI16
aa(lp1481
I4
aI7
aI16
aa(lp1482
I4
aI7
aI3
aa(lp1483
I4
aI17
aI16
aa(lp1484
I4
aI75
aI16
aa(lp1485
I4
aI75
aI3
aa(lp1486
I12
aI7
aI150
aa(lp1487
I4
aI7
aI150
aa(lp1488
I4
aI12
aI150
aa(lp1489
I8
aI12
aI150
aa(lp1490
I4
aI8
aI150
aa(lp1491
I4
aI3
aI182
aa(lp1492
I4
aI7
aI182
aa(lp1493
I4
aI75
aI182
aa(lp1494
I4
aI182
aI22
aa(lp1495
I4
aI13
aI22
aa(lp1496
I4
aI13
aI182
aa(lp1497
I4
aI8
aI13
aa(lp1498
I4
aI8
aI182
aa(lp1499
I4
aI150
aI182
aa(lp1500
I4
aI181
aI22
aa(lp1501
I4
aI182
aI181
aa(lp1502
I4
aI75
aI181
aa(lp1503
I37
aI52
aI53
aa(lp1504
I37
aI59
aI53
aa(lp1505
I37
aI59
aI52
aa(lp1506
I37
aI38
aI53
aa(lp1507
I37
aI52
aI38
aa(lp1508
I55
aI59
aI53
aa(lp1509
I37
aI55
aI53
aa(lp1510
I37
aI55
aI59
aa(lp1511
I88
aI55
aI59
aa(lp1512
I37
aI88
aI59
aa(lp1513
I37
aI88
aI55
aa(lp1514
I37
aI53
aI27
aa(lp1515
I37
aI38
aI27
aa(lp1516
I55
aI41
aI53
aa(lp1517
I37
aI41
aI53
aa(lp1518
I37
aI55
aI41
aa(lp1519
I37
aI88
aI41
aa(lp1520
I37
aI41
aI27
aa(lp1521
I44
aI60
aI34
aa(lp1522
I44
aI70
aI34
aa(lp1523
I44
aI70
aI60
aa(lp1524
I44
aI55
aI43
aa(lp1525
I44
aI88
aI43
aa(lp1526
I44
aI88
aI55
aa(lp1527
I44
aI70
aI43
aa(lp1528
I44
aI70
aI88
aa(lp1529
I44
aI55
aI106
aa(lp1530
I44
aI60
aI106
aa(lp1531
I44
aI60
aI55
aa(lp1532
I44
aI70
aI106
aa(lp1533
I44
aI43
aI1
aa(lp1534
I44
aI41
aI1
aa(lp1535
I44
aI41
aI43
aa(lp1536
I44
aI55
aI41
aa(lp1537
I44
aI55
aI59
aa(lp1538
I44
aI88
aI59
aa(lp1539
I44
aI70
aI59
aa(lp1540
I55
aI59
aI106
aa(lp1541
I44
aI59
aI106
aa(lp1542
I44
aI19
aI1
aa(lp1543
I44
aI41
aI19
aa(lp1544
I44
aI55
aI132
aa(lp1545
I44
aI60
aI132
aa(lp1546
I44
aI32
aI19
aa(lp1547
I44
aI41
aI32
aa(lp1548
I55
aI41
aI32
aa(lp1549
I44
aI55
aI32
aa(lp1550
I44
aI187
aI1
aa(lp1551
I44
aI187
aI19
aa(lp1552
I44
aI187
aI32
aa(lp1553
I153
aI131
aI130
aa(lp1554
I152
aI131
aI130
aa(lp1555
I152
aI153
aI130
aa(lp1556
I152
aI153
aI131
aa(lp1557
I152
aI148
aI130
aa(lp1558
I152
aI148
aI131
aa(lp1559
I152
aI148
aI153
aa(lp1560
I152
aI40
aI130
aa(lp1561
I152
aI148
aI40
aa(lp1562
I152
aI40
aI150
aa(lp1563
I152
aI148
aI150
aa(lp1564
I152
aI150
aI184
aa(lp1565
I152
aI185
aI184
aa(lp1566
I152
aI185
aI150
aa(lp1567
I152
aI153
aI184
aa(lp1568
I152
aI153
aI185
aa(lp1569
I152
aI7
aI130
aa(lp1570
I152
aI7
aI40
aa(lp1571
I152
aI7
aI150
aa(lp1572
I152
aI12
aI130
aa(lp1573
I152
aI12
aI7
aa(lp1574
I152
aI12
aI150
aa(lp1575
I12
aI1
aI130
aa(lp1576
I152
aI1
aI130
aa(lp1577
I152
aI12
aI1
aa(lp1578
I152
aI8
aI150
aa(lp1579
I152
aI8
aI185
aa(lp1580
I152
aI8
aI12
aa(lp1581
I187
aI1
aI130
aa(lp1582
I152
aI187
aI130
aa(lp1583
I152
aI187
aI1
aa(lp1584
I152
aI1
aI185
aa(lp1585
I152
aI187
aI185
aa(lp1586
I152
aI186
aI185
aa(lp1587
I152
aI153
aI186
aa(lp1588
I152
aI187
aI186
aa(lp1589
I187
aI153
aI186
aa(lp1590
I152
aI187
aI153
aa(lp1591
I152
aI8
aI1
aa(lp1592
I8
aI12
aI1
aa(lp1593
I141
aI144
aI172
aa(lp1594
I173
aI144
aI172
aa(lp1595
I173
aI141
aI172
aa(lp1596
I173
aI141
aI144
aa(lp1597
I173
aI153
aI139
aa(lp1598
I173
aI144
aI139
aa(lp1599
I173
aI144
aI153
aa(lp1600
I173
aI141
aI139
aa(lp1601
I173
aI169
aI184
aa(lp1602
I173
aI153
aI184
aa(lp1603
I173
aI153
aI169
aa(lp1604
I173
aI152
aI184
aa(lp1605
I173
aI152
aI153
aa(lp1606
I173
aI148
aI153
aa(lp1607
I173
aI148
aI144
aa(lp1608
I173
aI152
aI148
aa(lp1609
I173
aI139
aI168
aa(lp1610
I173
aI153
aI168
aa(lp1611
I173
aI169
aI168
aa(lp1612
I173
aI141
aI168
aa(lp1613
I173
aI172
aI168
aa(lp1614
I173
aI169
aI172
aa(lp1615
I173
aI150
aI184
aa(lp1616
I173
aI152
aI150
aa(lp1617
I173
aI148
aI150
aa(lp1618
I144
aI172
aI174
aa(lp1619
I173
aI172
aI174
aa(lp1620
I173
aI144
aI174
aa(lp1621
I173
aI148
aI174
aa(lp1622
I173
aI174
aI184
aa(lp1623
I173
aI174
aI150
aa(lp1624
I173
aI149
aI150
aa(lp1625
I173
aI149
aI174
aa(lp1626
I173
aI148
aI149
aa(lp1627
I173
aI175
aI184
aa(lp1628
I173
aI175
aI174
aa(lp1629
I173
aI169
aI175
aa(lp1630
I173
aI175
aI172
aa(lp1631
I145
aI129
aI176
aa(lp1632
I145
aI147
aI176
aa(lp1633
I145
aI147
aI129
aa(lp1634
I145
aI174
aI176
aa(lp1635
I145
aI147
aI174
aa(lp1636
I145
aI144
aI174
aa(lp1637
I145
aI147
aI144
aa(lp1638
I145
aI85
aI129
aa(lp1639
I145
aI126
aI129
aa(lp1640
I145
aI126
aI85
aa(lp1641
I145
aI172
aI176
aa(lp1642
I145
aI172
aI174
aa(lp1643
I145
aI144
aI172
aa(lp1644
I145
aI56
aI129
aa(lp1645
I145
aI147
aI56
aa(lp1646
I145
aI171
aI176
aa(lp1647
I145
aI172
aI171
aa(lp1648
I145
aI142
aI118
aa(lp1649
I145
aI121
aI118
aa(lp1650
I145
aI121
aI142
aa(lp1651
I145
aI126
aI118
aa(lp1652
I145
aI126
aI121
aa(lp1653
I127
aI129
aI118
aa(lp1654
I145
aI129
aI118
aa(lp1655
I145
aI127
aI118
aa(lp1656
I145
aI127
aI129
aa(lp1657
I145
aI126
aI127
aa(lp1658
I145
aI144
aI142
aa(lp1659
I145
aI141
aI142
aa(lp1660
I145
aI141
aI144
aa(lp1661
I145
aI141
aI172
aa(lp1662
I145
aI143
aI142
aa(lp1663
I145
aI143
aI121
aa(lp1664
I145
aI144
aI143
aa(lp1665
I145
aI171
aI142
aa(lp1666
I145
aI141
aI171
aa(lp1667
I112
aI113
aI114
aa(lp1668
I112
aI69
aI114
aa(lp1669
I112
aI69
aI113
aa(lp1670
I112
aI68
aI114
aa(lp1671
I112
aI68
aI113
aa(lp1672
I112
aI68
aI69
aa(lp1673
I112
aI84
aI69
aa(lp1674
I112
aI84
aI68
aa(lp1675
I112
aI113
aI128
aa(lp1676
I112
aI69
aI128
aa(lp1677
I112
aI83
aI128
aa(lp1678
I112
aI83
aI113
aa(lp1679
I112
aI84
aI128
aa(lp1680
I112
aI84
aI83
aa(lp1681
I112
aI113
aI123
aa(lp1682
I112
aI83
aI123
aa(lp1683
I113
aI119
aI123
aa(lp1684
I112
aI119
aI123
aa(lp1685
I112
aI113
aI119
aa(lp1686
I112
aI67
aI113
aa(lp1687
I112
aI68
aI67
aa(lp1688
I112
aI111
aI119
aa(lp1689
I112
aI113
aI111
aa(lp1690
I112
aI67
aI111
aa(lp1691
I64
aI78
aI67
aa(lp1692
I64
aI60
aI67
aa(lp1693
I64
aI60
aI78
aa(lp1694
I68
aI78
aI67
aa(lp1695
I64
aI68
aI67
aa(lp1696
I64
aI68
aI78
aa(lp1697
I64
aI132
aI131
aa(lp1698
I64
aI78
aI131
aa(lp1699
I64
aI78
aI132
aa(lp1700
I64
aI24
aI40
aa(lp1701
I64
aI84
aI40
aa(lp1702
I64
aI84
aI24
aa(lp1703
I64
aI68
aI24
aa(lp1704
I64
aI84
aI68
aa(lp1705
I64
aI131
aI130
aa(lp1706
I64
aI40
aI130
aa(lp1707
I64
aI40
aI131
aa(lp1708
I64
aI131
aI120
aa(lp1709
I64
aI81
aI120
aa(lp1710
I64
aI81
aI131
aa(lp1711
I64
aI78
aI120
aa(lp1712
I64
aI81
aI78
aa(lp1713
I39
aI32
aI189
aa(lp1714
I39
aI55
aI189
aa(lp1715
I39
aI55
aI32
aa(lp1716
I39
aI190
aI189
aa(lp1717
I39
aI190
aI32
aa(lp1718
I39
aI156
aI189
aa(lp1719
I39
aI156
aI190
aa(lp1720
I39
aI133
aI189
aa(lp1721
I39
aI55
aI133
aa(lp1722
I156
aI133
aI189
aa(lp1723
I39
aI156
aI133
aa(lp1724
I39
aI133
aI106
aa(lp1725
I39
aI55
aI106
aa(lp1726
I39
aI59
aI106
aa(lp1727
I39
aI55
aI59
aa(lp1728
I39
aI190
aI51
aa(lp1729
I39
aI156
aI51
aa(lp1730
I39
aI41
aI53
aa(lp1731
I39
aI55
aI53
aa(lp1732
I39
aI55
aI41
aa(lp1733
I39
aI41
aI32
aa(lp1734
I39
aI102
aI32
aa(lp1735
I39
aI102
aI41
aa(lp1736
I39
aI51
aI53
aa(lp1737
I39
aI102
aI53
aa(lp1738
I39
aI102
aI51
aa(lp1739
I39
aI46
aI32
aa(lp1740
I39
aI190
aI46
aa(lp1741
I39
aI102
aI46
aa(lp1742
I39
aI59
aI53
aa(lp1743
I39
aI59
aI51
aa(lp1744
I39
aI51
aI106
aa(lp1745
I39
aI133
aI51
aa(lp1746
I39
aI47
aI53
aa(lp1747
I39
aI41
aI47
aa(lp1748
I39
aI102
aI47
aa(lp1749
I39
aI191
aI51
aa(lp1750
I39
aI190
aI191
aa(lp1751
I39
aI102
aI191
aa(lp1752
I39
aI46
aI191
aa(lp1753
I195
aI188
aI46
aa(lp1754
I195
aI35
aI46
aa(lp1755
I195
aI35
aI188
aa(lp1756
I195
aI198
aI188
aa(lp1757
I195
aI35
aI198
aa(lp1758
I195
aI157
aI194
aa(lp1759
I195
aI46
aI194
aa(lp1760
I195
aI46
aI157
aa(lp1761
I195
aI188
aI157
aa(lp1762
I195
aI198
aI194
aa(lp1763
I195
aI198
aI157
aa(lp1764
I195
aI46
aI49
aa(lp1765
I195
aI35
aI49
aa(lp1766
I195
aI192
aI194
aa(lp1767
I195
aI46
aI192
aa(lp1768
I195
aI196
aI194
aa(lp1769
I195
aI197
aI194
aa(lp1770
I195
aI197
aI196
aa(lp1771
I195
aI198
aI197
aa(lp1772
I195
aI198
aI196
aa(lp1773
I195
aI49
aI192
aa(lp1774
I195
aI199
aI196
aa(lp1775
I195
aI198
aI199
aa(lp1776
I195
aI49
aI20
aa(lp1777
I195
aI35
aI20
aa(lp1778
I195
aI198
aI20
aa(lp1779
I195
aI193
aI194
aa(lp1780
I195
aI196
aI193
aa(lp1781
I195
aI192
aI193
aa(lp1782
I195
aI192
aI196
aa(lp1783
I195
aI104
aI196
aa(lp1784
I195
aI104
aI192
aa(lp1785
I195
aI104
aI49
aa(lp1786
I195
aI104
aI199
aa(lp1787
I195
aI199
aI20
aa(lp1788
I195
aI104
aI20
aa(lp1789
I135
aI116
aI111
aa(lp1790
I135
aI81
aI111
aa(lp1791
I135
aI81
aI116
aa(lp1792
I135
aI134
aI116
aa(lp1793
I135
aI81
aI134
aa(lp1794
I135
aI116
aI137
aa(lp1795
I135
aI136
aI137
aa(lp1796
I135
aI136
aI116
aa(lp1797
I135
aI116
aI138
aa(lp1798
I135
aI134
aI138
aa(lp1799
I135
aI136
aI138
aa(lp1800
I135
aI136
aI134
aa(lp1801
I135
aI133
aI111
aa(lp1802
I135
aI81
aI133
aa(lp1803
I135
aI134
aI133
aa(lp1804
I116
aI160
aI137
aa(lp1805
I135
aI160
aI137
aa(lp1806
I135
aI116
aI160
aa(lp1807
I135
aI136
aI160
aa(lp1808
I135
aI156
aI111
aa(lp1809
I135
aI156
aI133
aa(lp1810
I135
aI156
aI134
aa(lp1811
I135
aI158
aI111
aa(lp1812
I135
aI156
aI158
aa(lp1813
I135
aI134
aI161
aa(lp1814
I135
aI136
aI161
aa(lp1815
I135
aI156
aI161
aa(lp1816
I158
aI116
aI160
aa(lp1817
I135
aI158
aI160
aa(lp1818
I135
aI158
aI116
aa(lp1819
I158
aI116
aI111
aa(lp1820
I135
aI161
aI158
aa(lp1821
I135
aI161
aI160
aa(lp1822
I154
aI132
aI153
aa(lp1823
I154
aI134
aI153
aa(lp1824
I154
aI134
aI132
aa(lp1825
I154
aI155
aI153
aa(lp1826
I154
aI155
aI134
aa(lp1827
I154
aI132
aI133
aa(lp1828
I154
aI134
aI133
aa(lp1829
I154
aI155
aI133
aa(lp1830
I154
aI153
aI186
aa(lp1831
I154
aI187
aI186
aa(lp1832
I154
aI187
aI153
aa(lp1833
I154
aI155
aI186
aa(lp1834
I154
aI155
aI187
aa(lp1835
I154
aI133
aI189
aa(lp1836
I154
aI132
aI189
aa(lp1837
I154
aI131
aI130
aa(lp1838
I154
aI153
aI130
aa(lp1839
I154
aI153
aI131
aa(lp1840
I132
aI131
aI130
aa(lp1841
I154
aI132
aI130
aa(lp1842
I154
aI132
aI131
aa(lp1843
I154
aI152
aI130
aa(lp1844
I154
aI152
aI153
aa(lp1845
I154
aI187
aI130
aa(lp1846
I154
aI152
aI187
aa(lp1847
I44
aI187
aI130
aa(lp1848
I154
aI44
aI130
aa(lp1849
I154
aI44
aI187
aa(lp1850
I154
aI32
aI189
aa(lp1851
I154
aI132
aI32
aa(lp1852
I154
aI188
aI189
aa(lp1853
I154
aI155
aI189
aa(lp1854
I154
aI155
aI188
aa(lp1855
I154
aI187
aI188
aa(lp1856
I154
aI156
aI189
aa(lp1857
I154
aI156
aI133
aa(lp1858
I154
aI156
aI155
aa(lp1859
I154
aI187
aI32
aa(lp1860
I154
aI44
aI32
aa(lp1861
I154
aI188
aI32
aa(lp1862
I154
aI55
aI32
aa(lp1863
I154
aI55
aI132
aa(lp1864
I154
aI44
aI55
aa(lp1865
I154
aI44
aI132
aa(lp1866
I21
aI93
aI66
aa(lp1867
I21
aI72
aI66
aa(lp1868
I21
aI72
aI93
aa(lp1869
I21
aI109
aI93
aa(lp1870
I21
aI109
aI72
aa(lp1871
I109
aI100
aI93
aa(lp1872
I21
aI100
aI93
aa(lp1873
I21
aI109
aI100
aa(lp1874
I100
aI93
aI9
aa(lp1875
I21
aI93
aI9
aa(lp1876
I21
aI100
aI9
aa(lp1877
I21
aI89
aI9
aa(lp1878
I21
aI100
aI89
aa(lp1879
I109
aI100
aI89
aa(lp1880
I21
aI109
aI89
aa(lp1881
I21
aI73
aI89
aa(lp1882
I21
aI42
aI89
aa(lp1883
I21
aI42
aI73
aa(lp1884
I109
aI42
aI89
aa(lp1885
I21
aI109
aI42
aa(lp1886
I73
aI66
aI110
aa(lp1887
I21
aI66
aI110
aa(lp1888
I21
aI73
aI110
aa(lp1889
I21
aI73
aI66
aa(lp1890
I21
aI76
aI110
aa(lp1891
I21
aI76
aI73
aa(lp1892
I21
aI76
aI9
aa(lp1893
I21
aI76
aI89
aa(lp1894
I125
aI26
aI40
aa(lp1895
I125
aI84
aI40
aa(lp1896
I125
aI84
aI26
aa(lp1897
I125
aI85
aI26
aa(lp1898
I125
aI84
aI85
aa(lp1899
I125
aI57
aI40
aa(lp1900
I125
aI57
aI26
aa(lp1901
I125
aI57
aI85
aa(lp1902
I125
aI126
aI85
aa(lp1903
I125
aI84
aI126
aa(lp1904
I125
aI40
aI131
aa(lp1905
I125
aI64
aI131
aa(lp1906
I125
aI64
aI40
aa(lp1907
I125
aI64
aI84
aa(lp1908
I125
aI131
aI120
aa(lp1909
I125
aI143
aI120
aa(lp1910
I125
aI143
aI131
aa(lp1911
I125
aI64
aI120
aa(lp1912
I125
aI121
aI120
aa(lp1913
I125
aI143
aI121
aa(lp1914
I125
aI121
aI123
aa(lp1915
I125
aI126
aI123
aa(lp1916
I125
aI126
aI121
aa(lp1917
I125
aI126
aI83
aa(lp1918
I125
aI84
aI83
aa(lp1919
I5
aI34
aI12
aa(lp1920
I5
aI17
aI12
aa(lp1921
I5
aI17
aI34
aa(lp1922
I5
aI8
aI12
aa(lp1923
I5
aI17
aI8
aa(lp1924
I5
aI70
aI34
aa(lp1925
I5
aI44
aI34
aa(lp1926
I5
aI44
aI70
aa(lp1927
I5
aI43
aI1
aa(lp1928
I5
aI44
aI1
aa(lp1929
I5
aI44
aI43
aa(lp1930
I5
aI60
aI34
aa(lp1931
I5
aI44
aI60
aa(lp1932
I5
aI12
aI1
aa(lp1933
I5
aI8
aI1
aa(lp1934
I5
aI24
aI12
aa(lp1935
I5
aI24
aI34
aa(lp1936
I5
aI1
aI130
aa(lp1937
I5
aI12
aI130
aa(lp1938
I5
aI187
aI130
aa(lp1939
I5
aI187
aI1
aa(lp1940
I5
aI44
aI130
aa(lp1941
I5
aI44
aI187
aa(lp1942
I33
aI72
aI74
aa(lp1943
I33
aI92
aI74
aa(lp1944
I33
aI92
aI72
aa(lp1945
I33
aI17
aI74
aa(lp1946
I33
aI92
aI17
aa(lp1947
I33
aI23
aI74
aa(lp1948
I33
aI23
aI17
aa(lp1949
I33
aI74
aI94
aa(lp1950
I33
aI72
aI94
aa(lp1951
I33
aI23
aI94
aa(lp1952
I33
aI23
aI72
aa(lp1953
I33
aI17
aI8
aa(lp1954
I33
aI23
aI8
aa(lp1955
I33
aI5
aI8
aa(lp1956
I33
aI5
aI17
aa(lp1957
I33
aI72
aI71
aa(lp1958
I33
aI92
aI71
aa(lp1959
I33
aI17
aI34
aa(lp1960
I33
aI92
aI34
aa(lp1961
I33
aI5
aI34
aa(lp1962
I33
aI70
aI71
aa(lp1963
I33
aI92
aI70
aa(lp1964
I92
aI70
aI34
aa(lp1965
I33
aI70
aI34
aa(lp1966
I33
aI5
aI70
aa(lp1967
I33
aI44
aI70
aa(lp1968
I33
aI5
aI44
aa(lp1969
I33
aI44
aI43
aa(lp1970
I33
aI5
aI43
aa(lp1971
I33
aI43
aI1
aa(lp1972
I33
aI5
aI1
aa(lp1973
I33
aI8
aI1
aa(lp1974
I33
aI43
aI71
aa(lp1975
I33
aI70
aI43
aa(lp1976
I80
aI62
aI114
aa(lp1977
I80
aI107
aI114
aa(lp1978
I80
aI107
aI62
aa(lp1979
I80
aI92
aI114
aa(lp1980
I80
aI92
aI62
aa(lp1981
I80
aI92
aI107
aa(lp1982
I80
aI29
aI114
aa(lp1983
I80
aI34
aI114
aa(lp1984
I80
aI34
aI29
aa(lp1985
I80
aI92
aI34
aa(lp1986
I80
aI107
aI65
aa(lp1987
I80
aI92
aI65
aa(lp1988
I80
aI113
aI79
aa(lp1989
I80
aI29
aI79
aa(lp1990
I80
aI29
aI113
aa(lp1991
I80
aI113
aI114
aa(lp1992
I107
aI113
aI79
aa(lp1993
I80
aI107
aI79
aa(lp1994
I80
aI107
aI113
aa(lp1995
I80
aI91
aI79
aa(lp1996
I80
aI91
aI29
aa(lp1997
I80
aI107
aI91
aa(lp1998
I80
aI65
aI29
aa(lp1999
I80
aI65
aI91
aa(lp2000
I80
aI114
aI61
aa(lp2001
I80
aI113
aI61
aa(lp2002
I80
aI107
aI61
aa(lp2003
I107
aI113
aI61
aa(lp2004
I80
aI70
aI29
aa(lp2005
I80
aI70
aI34
aa(lp2006
I80
aI70
aI65
aa(lp2007
I80
aI92
aI70
aa(lp2008
I65
aI91
aI108
aa(lp2009
I80
aI91
aI108
aa(lp2010
I80
aI65
aI108
aa(lp2011
I80
aI107
aI108
aa(lp2012
I6
aI13
aI22
aa(lp2013
I6
aI73
aI22
aa(lp2014
I6
aI73
aI13
aa(lp2015
I6
aI23
aI22
aa(lp2016
I6
aI23
aI13
aa(lp2017
I6
aI23
aI73
aa(lp2018
I6
aI42
aI13
aa(lp2019
I6
aI42
aI73
aa(lp2020
I6
aI21
aI73
aa(lp2021
I6
aI21
aI42
aa(lp2022
I6
aI73
aI66
aa(lp2023
I6
aI21
aI66
aa(lp2024
I6
aI109
aI42
aa(lp2025
I6
aI21
aI109
aa(lp2026
I6
aI66
aI110
aa(lp2027
I6
aI73
aI110
aa(lp2028
I6
aI23
aI110
aa(lp2029
I6
aI23
aI66
aa(lp2030
I6
aI72
aI66
aa(lp2031
I6
aI23
aI72
aa(lp2032
I6
aI21
aI72
aa(lp2033
I6
aI8
aI13
aa(lp2034
I6
aI23
aI8
aa(lp2035
I6
aI33
aI8
aa(lp2036
I6
aI33
aI23
aa(lp2037
I109
aI43
aI42
aa(lp2038
I6
aI43
aI42
aa(lp2039
I6
aI109
aI43
aa(lp2040
I6
aI109
aI72
aa(lp2041
I6
aI13
aI1
aa(lp2042
I6
aI42
aI1
aa(lp2043
I6
aI43
aI1
aa(lp2044
I6
aI33
aI1
aa(lp2045
I6
aI33
aI43
aa(lp2046
I6
aI8
aI1
aa(lp2047
I6
aI33
aI72
aa(lp2048
I109
aI43
aI71
aa(lp2049
I6
aI43
aI71
aa(lp2050
I6
aI109
aI71
aa(lp2051
I6
aI33
aI71
aa(lp2052
I6
aI72
aI71
aa(lp2053
I99
aI109
aI71
aa(lp2054
I99
aI101
aI71
aa(lp2055
I99
aI101
aI109
aa(lp2056
I99
aI100
aI93
aa(lp2057
I99
aI109
aI93
aa(lp2058
I99
aI109
aI100
aa(lp2059
I99
aI101
aI93
aa(lp2060
I146
aI144
aI143
aa(lp2061
I146
aI147
aI143
aa(lp2062
I146
aI147
aI144
aa(lp2063
I146
aI145
aI143
aa(lp2064
I146
aI145
aI144
aa(lp2065
I146
aI145
aI147
aa(lp2066
I146
aI148
aI143
aa(lp2067
I146
aI147
aI148
aa(lp2068
I146
aI143
aI121
aa(lp2069
I146
aI145
aI121
aa(lp2070
I146
aI125
aI121
aa(lp2071
I146
aI125
aI143
aa(lp2072
I146
aI143
aI131
aa(lp2073
I146
aI148
aI131
aa(lp2074
I146
aI125
aI131
aa(lp2075
I146
aI148
aI40
aa(lp2076
I146
aI147
aI40
aa(lp2077
I146
aI126
aI121
aa(lp2078
I146
aI145
aI126
aa(lp2079
I146
aI125
aI126
aa(lp2080
I146
aI126
aI85
aa(lp2081
I146
aI145
aI85
aa(lp2082
I146
aI125
aI85
aa(lp2083
I146
aI40
aI131
aa(lp2084
I146
aI125
aI40
aa(lp2085
I146
aI57
aI40
aa(lp2086
I146
aI147
aI57
aa(lp2087
I146
aI125
aI57
aa(lp2088
I146
aI147
aI56
aa(lp2089
I146
aI145
aI56
aa(lp2090
I146
aI57
aI85
aa(lp2091
I146
aI56
aI85
aa(lp2092
I146
aI56
aI57
aa(lp2093
I146
aI85
aI129
aa(lp2094
I146
aI56
aI129
aa(lp2095
I146
aI145
aI129
aa(lp2096
I25
aI24
aI60
aa(lp2097
I25
aI68
aI60
aa(lp2098
I25
aI68
aI24
aa(lp2099
I25
aI64
aI24
aa(lp2100
I25
aI64
aI68
aa(lp2101
I25
aI60
aI67
aa(lp2102
I25
aI68
aI67
aa(lp2103
I25
aI64
aI67
aa(lp2104
I25
aI64
aI60
aa(lp2105
I25
aI40
aI130
aa(lp2106
I25
aI24
aI130
aa(lp2107
I25
aI24
aI40
aa(lp2108
I25
aI64
aI130
aa(lp2109
I25
aI64
aI40
aa(lp2110
I25
aI44
aI130
aa(lp2111
I25
aI5
aI130
aa(lp2112
I25
aI5
aI44
aa(lp2113
I25
aI44
aI60
aa(lp2114
I25
aI5
aI60
aa(lp2115
I25
aI12
aI130
aa(lp2116
I25
aI24
aI12
aa(lp2117
I25
aI5
aI12
aa(lp2118
I25
aI5
aI24
aa(lp2119
I25
aI60
aI34
aa(lp2120
I25
aI24
aI34
aa(lp2121
I25
aI5
aI34
aa(lp2122
I25
aI60
aI132
aa(lp2123
I25
aI44
aI132
aa(lp2124
I25
aI131
aI130
aa(lp2125
I25
aI132
aI130
aa(lp2126
I25
aI132
aI131
aa(lp2127
I25
aI64
aI131
aa(lp2128
I25
aI64
aI132
aa(lp2129
I25
aI78
aI132
aa(lp2130
I25
aI60
aI78
aa(lp2131
I25
aI64
aI78
aa(lp2132
I25
aI154
aI130
aa(lp2133
I25
aI154
aI132
aa(lp2134
I25
aI154
aI44
aa(lp2135
I124
aI83
aI123
aa(lp2136
I124
aI126
aI123
aa(lp2137
I124
aI126
aI83
aa(lp2138
I124
aI125
aI123
aa(lp2139
I124
aI125
aI126
aa(lp2140
I124
aI125
aI83
aa(lp2141
I124
aI64
aI120
aa(lp2142
I124
aI125
aI120
aa(lp2143
I124
aI125
aI64
aa(lp2144
I124
aI84
aI83
aa(lp2145
I124
aI125
aI84
aa(lp2146
I124
aI64
aI84
aa(lp2147
I124
aI112
aI123
aa(lp2148
I124
aI112
aI83
aa(lp2149
I124
aI68
aI78
aa(lp2150
I124
aI64
aI78
aa(lp2151
I124
aI64
aI68
aa(lp2152
I124
aI84
aI68
aa(lp2153
I124
aI78
aI120
aa(lp2154
I124
aI120
aI123
aa(lp2155
I124
aI121
aI123
aa(lp2156
I124
aI121
aI120
aa(lp2157
I124
aI125
aI121
aa(lp2158
I124
aI119
aI123
aa(lp2159
I124
aI112
aI119
aa(lp2160
I124
aI112
aI84
aa(lp2161
I124
aI112
aI68
aa(lp2162
I124
aI119
aI120
aa(lp2163
I124
aI68
aI67
aa(lp2164
I124
aI112
aI67
aa(lp2165
I124
aI78
aI67
aa(lp2166
I124
aI111
aI120
aa(lp2167
I124
aI111
aI119
aa(lp2168
I124
aI78
aI111
aa(lp2169
I124
aI112
aI111
aa(lp2170
I124
aI67
aI111
aa(lp2171
I99
aI88
aI71
aa(lp2172
I98
aI88
aI71
aa(lp2173
I98
aI99
aI71
aa(lp2174
I98
aI99
aI88
aa(lp2175
I98
aI101
aI71
aa(lp2176
I98
aI99
aI101
aa(lp2177
I98
aI65
aI71
aa(lp2178
I98
aI88
aI65
aa(lp2179
I98
aI101
aI65
aa(lp2180
I98
aI65
aI108
aa(lp2181
I98
aI101
aI108
aa(lp2182
I99
aI101
aI108
aa(lp2183
I98
aI99
aI108
aa(lp2184
I98
aI91
aI59
aa(lp2185
I98
aI65
aI59
aa(lp2186
I98
aI65
aI91
aa(lp2187
I98
aI88
aI59
aa(lp2188
I98
aI91
aI108
aa(lp2189
I98
aI52
aI108
aa(lp2190
I98
aI91
aI52
aa(lp2191
I99
aI37
aI88
aa(lp2192
I98
aI37
aI88
aa(lp2193
I98
aI99
aI37
aa(lp2194
I98
aI52
aI51
aa(lp2195
I98
aI59
aI51
aa(lp2196
I98
aI59
aI52
aa(lp2197
I98
aI91
aI51
aa(lp2198
I98
aI37
aI52
aa(lp2199
I98
aI37
aI59
aa(lp2200
I30
aI88
aI71
aa(lp2201
I30
aI99
aI71
aa(lp2202
I30
aI99
aI88
aa(lp2203
I30
aI109
aI71
aa(lp2204
I30
aI99
aI109
aa(lp2205
I30
aI43
aI71
aa(lp2206
I30
aI88
aI43
aa(lp2207
I30
aI109
aI43
aa(lp2208
I30
aI37
aI88
aa(lp2209
I30
aI99
aI37
aa(lp2210
I30
aI109
aI100
aa(lp2211
I30
aI99
aI100
aa(lp2212
I30
aI41
aI43
aa(lp2213
I30
aI88
aI41
aa(lp2214
I30
aI37
aI41
aa(lp2215
I30
aI41
aI27
aa(lp2216
I30
aI37
aI27
aa(lp2217
I30
aI43
aI42
aa(lp2218
I30
aI109
aI42
aa(lp2219
I30
aI42
aI27
aa(lp2220
I30
aI41
aI42
aa(lp2221
I30
aI100
aI89
aa(lp2222
I30
aI109
aI89
aa(lp2223
I30
aI42
aI89
aa(lp2224
I30
aI38
aI27
aa(lp2225
I30
aI100
aI27
aa(lp2226
I30
aI100
aI38
aa(lp2227
I30
aI37
aI38
aa(lp2228
I37
aI100
aI38
aa(lp2229
I30
aI37
aI100
aa(lp2230
I30
aI89
aI27
aa(lp2231
I105
aI37
aI52
aa(lp2232
I105
aI98
aI52
aa(lp2233
I105
aI98
aI37
aa(lp2234
I105
aI99
aI37
aa(lp2235
I105
aI98
aI99
aa(lp2236
I105
aI52
aI38
aa(lp2237
I105
aI37
aI38
aa(lp2238
I105
aI52
aI108
aa(lp2239
I105
aI98
aI108
aa(lp2240
I105
aI99
aI108
aa(lp2241
I105
aI38
aI36
aa(lp2242
I105
aI52
aI36
aa(lp2243
I105
aI100
aI38
aa(lp2244
I105
aI37
aI100
aa(lp2245
I105
aI108
aI36
aa(lp2246
I105
aI30
aI100
aa(lp2247
I105
aI30
aI37
aa(lp2248
I105
aI99
aI100
aa(lp2249
I105
aI30
aI99
aa(lp2250
I105
aI9
aI36
aa(lp2251
I105
aI9
aI38
aa(lp2252
I105
aI100
aI9
aa(lp2253
I105
aI93
aI9
aa(lp2254
I105
aI100
aI93
aa(lp2255
I105
aI99
aI93
aa(lp2256
I105
aI93
aI108
aa(lp2257
I105
aI101
aI108
aa(lp2258
I105
aI101
aI93
aa(lp2259
I105
aI99
aI101
aa.