(lp0
(lp1
I151
aI106
aI183
aa(lp2
I176
aI106
aI183
aa(lp3
I176
aI151
aI183
aa(lp4
I176
aI151
aI106
aa(lp5
I176
aI200
aI183
aa(lp6
I152
aI200
aI183
aa(lp7
I152
aI176
aI183
aa(lp8
I152
aI176
aI200
aa(lp9
I152
aI151
aI183
aa(lp10
I152
aI176
aI151
aa(lp11
I189
aI133
aI130
aa(lp12
I172
aI133
aI130
aa(lp13
I172
aI189
aI130
aa(lp14
I172
aI189
aI133
aa(lp15
I189
aI133
aI198
aa(lp16
I172
aI133
aI198
aa(lp17
I172
aI189
aI198
aa(lp18
I178
aI151
aI106
aa(lp19
I178
aI176
aI106
aa(lp20
I178
aI176
aI151
aa(lp21
I178
aI152
aI151
aa(lp22
I178
aI152
aI176
aa(lp23
I152
aI176
aI65
aa(lp24
I178
aI176
aI65
aa(lp25
I178
aI152
aI65
aa(lp26
I176
aI65
aI106
aa(lp27
I138
aI65
aI106
aa(lp28
I138
aI176
aI106
aa(lp29
I138
aI176
aI65
aa(lp30
I94
aI200
aI183
aa(lp31
I94
aI176
aI183
aa(lp32
I94
aI176
aI200
aa(lp33
I155
aI109
aI96
aa(lp34
I59
aI109
aI96
aa(lp35
I59
aI155
aI96
aa(lp36
I59
aI155
aI109
aa(lp37
I169
aI109
aI96
aa(lp38
I187
aI109
aI96
aa(lp39
I187
aI169
aI96
aa(lp40
I187
aI169
aI109
aa(lp41
I187
aI155
aI96
aa(lp42
I187
aI155
aI109
aa(lp43
I189
aI145
aI130
aa(lp44
I187
aI145
aI130
aa(lp45
I187
aI189
aI130
aa(lp46
I187
aI189
aI145
aa(lp47
I184
aI163
aI148
aa(lp48
I153
aI163
aI148
aa(lp49
I153
aI184
aI148
aa(lp50
I153
aI184
aI163
aa(lp51
I187
aI169
aI145
aa(lp52
I126
aI169
aI145
aa(lp53
I126
aI187
aI145
aa(lp54
I126
aI187
aI169
aa(lp55
I93
aI189
aI145
aa(lp56
I126
aI189
aI145
aa(lp57
I126
aI93
aI145
aa(lp58
I126
aI93
aI189
aa(lp59
I126
aI187
aI189
aa(lp60
I74
aI145
aI130
aa(lp61
I74
aI187
aI130
aa(lp62
I74
aI187
aI145
aa(lp63
I74
aI189
aI130
aa(lp64
I74
aI189
aI145
aa(lp65
I136
aI32
aI23
aa(lp66
I71
aI32
aI23
aa(lp67
I71
aI136
aI23
aa(lp68
I71
aI136
aI32
aa(lp69
I94
aI199
aI200
aa(lp70
I159
aI199
aI200
aa(lp71
I159
aI94
aI200
aa(lp72
I159
aI94
aI199
aa(lp73
I178
aI151
aI194
aa(lp74
I193
aI151
aI194
aa(lp75
I193
aI178
aI194
aa(lp76
I193
aI178
aI151
aa(lp77
I138
aI171
aI106
aa(lp78
I157
aI171
aI106
aa(lp79
I157
aI138
aI106
aa(lp80
I157
aI138
aI171
aa(lp81
I84
aI93
aI198
aa(lp82
I81
aI93
aI198
aa(lp83
I81
aI84
aI198
aa(lp84
I81
aI84
aI93
aa(lp85
I85
aI32
aI23
aa(lp86
I85
aI71
aI23
aa(lp87
I85
aI71
aI32
aa(lp88
I85
aI136
aI32
aa(lp89
I85
aI71
aI136
aa(lp90
I115
aI163
aI148
aa(lp91
I115
aI184
aI148
aa(lp92
I115
aI184
aI163
aa(lp93
I184
aI148
aI185
aa(lp94
I154
aI148
aI185
aa(lp95
I154
aI184
aI185
aa(lp96
I154
aI184
aI148
aa(lp97
I154
aI115
aI148
aa(lp98
I154
aI115
aI184
aa(lp99
I115
aI184
aI186
aa(lp100
I154
aI184
aI186
aa(lp101
I154
aI115
aI186
aa(lp102
I88
aI176
aI183
aa(lp103
I88
aI94
aI183
aa(lp104
I88
aI94
aI176
aa(lp105
I88
aI106
aI183
aa(lp106
I88
aI176
aI106
aa(lp107
I192
aI176
aI106
aa(lp108
I88
aI192
aI106
aa(lp109
I88
aI192
aI176
aa(lp110
I59
aI109
aI103
aa(lp111
I52
aI109
aI103
aa(lp112
I52
aI59
aI103
aa(lp113
I52
aI59
aI109
aa(lp114
I52
aI109
aI96
aa(lp115
I52
aI59
aI96
aa(lp116
I75
aI11
aI27
aa(lp117
I53
aI11
aI27
aa(lp118
I53
aI75
aI27
aa(lp119
I53
aI75
aI11
aa(lp120
I75
aI49
aI27
aa(lp121
I53
aI49
aI27
aa(lp122
I53
aI75
aI49
aa(lp123
I119
aI163
aI164
aa(lp124
I66
aI163
aI164
aa(lp125
I66
aI119
aI164
aa(lp126
I66
aI119
aI163
aa(lp127
I116
aI169
aI96
aa(lp128
I116
aI187
aI96
aa(lp129
I116
aI187
aI169
aa(lp130
I116
aI169
aI145
aa(lp131
I116
aI187
aI145
aa(lp132
I116
aI74
aI145
aa(lp133
I116
aI74
aI187
aa(lp134
I116
aI155
aI96
aa(lp135
I116
aI187
aI155
aa(lp136
I184
aI163
aI141
aa(lp137
I140
aI163
aI141
aa(lp138
I140
aI184
aI141
aa(lp139
I140
aI184
aI163
aa(lp140
I140
aI115
aI163
aa(lp141
I140
aI115
aI184
aa(lp142
I38
aI11
aI27
aa(lp143
I38
aI75
aI27
aa(lp144
I38
aI75
aI11
aa(lp145
I63
aI153
aI122
aa(lp146
I123
aI153
aI122
aa(lp147
I123
aI63
aI122
aa(lp148
I123
aI63
aI153
aa(lp149
I165
aI63
aI143
aa(lp150
I166
aI63
aI143
aa(lp151
I166
aI165
aI143
aa(lp152
I166
aI165
aI63
aa(lp153
I85
aI71
aI93
aa(lp154
I37
aI71
aI93
aa(lp155
I37
aI85
aI93
aa(lp156
I37
aI85
aI71
aa(lp157
I112
aI171
aI106
aa(lp158
I112
aI138
aI106
aa(lp159
I112
aI138
aI171
aa(lp160
I45
aI138
aI65
aa(lp161
I112
aI138
aI65
aa(lp162
I112
aI45
aI65
aa(lp163
I112
aI45
aI138
aa(lp164
I6
aI32
aI23
aa(lp165
I6
aI85
aI23
aa(lp166
I6
aI85
aI32
aa(lp167
I6
aI71
aI23
aa(lp168
I6
aI85
aI71
aa(lp169
I37
aI71
aI23
aa(lp170
I6
aI37
aI23
aa(lp171
I6
aI37
aI71
aa(lp172
I6
aI37
aI85
aa(lp173
I85
aI81
aI32
aa(lp174
I6
aI81
aI32
aa(lp175
I6
aI85
aI81
aa(lp176
I174
aI94
aI199
aa(lp177
I174
aI159
aI199
aa(lp178
I174
aI159
aI94
aa(lp179
I174
aI94
aI200
aa(lp180
I174
aI159
aI200
aa(lp181
I53
aI15
aI27
aa(lp182
I1
aI15
aI27
aa(lp183
I1
aI53
aI27
aa(lp184
I1
aI53
aI15
aa(lp185
I95
aI152
aI65
aa(lp186
I95
aI178
aI65
aa(lp187
I95
aI178
aI152
aa(lp188
I150
aI200
aI183
aa(lp189
I150
aI152
aI183
aa(lp190
I150
aI152
aI200
aa(lp191
I150
aI94
aI183
aa(lp192
I150
aI94
aI200
aa(lp193
I150
aI199
aI200
aa(lp194
I150
aI94
aI199
aa(lp195
I150
aI159
aI200
aa(lp196
I150
aI159
aI199
aa(lp197
I159
aI182
aI199
aa(lp198
I150
aI182
aI199
aa(lp199
I150
aI159
aI182
aa(lp200
I177
aI151
aI106
aa(lp201
I177
aI178
aI106
aa(lp202
I177
aI178
aI151
aa(lp203
I193
aI151
aI106
aa(lp204
I177
aI193
aI106
aa(lp205
I177
aI193
aI151
aa(lp206
I177
aI193
aI178
aa(lp207
I177
aI65
aI106
aa(lp208
I177
aI138
aI106
aa(lp209
I177
aI138
aI65
aa(lp210
I138
aI178
aI65
aa(lp211
I177
aI178
aI65
aa(lp212
I177
aI138
aI178
aa(lp213
I193
aI172
aI106
aa(lp214
I177
aI172
aI106
aa(lp215
I177
aI193
aI172
aa(lp216
I177
aI176
aI106
aa(lp217
I177
aI176
aI65
aa(lp218
I177
aI178
aI176
aa(lp219
I59
aI155
aI103
aa(lp220
I31
aI155
aI103
aa(lp221
I31
aI59
aI103
aa(lp222
I31
aI59
aI155
aa(lp223
I155
aI130
aI103
aa(lp224
I31
aI130
aI103
aa(lp225
I31
aI155
aI130
aa(lp226
I196
aI45
aI138
aa(lp227
I196
aI112
aI138
aa(lp228
I196
aI112
aI45
aa(lp229
I196
aI138
aI65
aa(lp230
I196
aI45
aI65
aa(lp231
I45
aI81
aI65
aa(lp232
I196
aI81
aI65
aa(lp233
I196
aI45
aI81
aa(lp234
I196
aI178
aI65
aa(lp235
I196
aI138
aI178
aa(lp236
I196
aI177
aI178
aa(lp237
I196
aI177
aI138
aa(lp238
I196
aI193
aI178
aa(lp239
I196
aI177
aI193
aa(lp240
I177
aI193
aI138
aa(lp241
I196
aI193
aI138
aa(lp242
I163
aI164
aI148
aa(lp243
I142
aI164
aI148
aa(lp244
I142
aI163
aI148
aa(lp245
I142
aI163
aI164
aa(lp246
I142
aI115
aI148
aa(lp247
I142
aI115
aI163
aa(lp248
I142
aI66
aI164
aa(lp249
I142
aI66
aI163
aa(lp250
I66
aI99
aI164
aa(lp251
I142
aI99
aI164
aa(lp252
I142
aI66
aI99
aa(lp253
I66
aI163
aI141
aa(lp254
I142
aI163
aI141
aa(lp255
I142
aI66
aI141
aa(lp256
I68
aI176
aI200
aa(lp257
I68
aI94
aI200
aa(lp258
I68
aI94
aI176
aa(lp259
I68
aI88
aI176
aa(lp260
I68
aI88
aI94
aa(lp261
I68
aI174
aI200
aa(lp262
I68
aI174
aI94
aa(lp263
I68
aI159
aI200
aa(lp264
I68
aI174
aI159
aa(lp265
I146
aI192
aI106
aa(lp266
I146
aI88
aI106
aa(lp267
I146
aI88
aI192
aa(lp268
I41
aI59
aI103
aa(lp269
I41
aI52
aI103
aa(lp270
I41
aI52
aI59
aa(lp271
I41
aI31
aI103
aa(lp272
I41
aI31
aI59
aa(lp273
I101
aI63
aI122
aa(lp274
I101
aI123
aI122
aa(lp275
I101
aI123
aI63
aa(lp276
I102
aI109
aI96
aa(lp277
I102
aI52
aI96
aa(lp278
I102
aI52
aI109
aa(lp279
I102
aI169
aI96
aa(lp280
I102
aI116
aI96
aa(lp281
I102
aI116
aI169
aa(lp282
I71
aI119
aI164
aa(lp283
I64
aI119
aI164
aa(lp284
I64
aI71
aI164
aa(lp285
I64
aI71
aI119
aa(lp286
I64
aI66
aI164
aa(lp287
I64
aI66
aI119
aa(lp288
I21
aI99
aI164
aa(lp289
I64
aI99
aI164
aa(lp290
I64
aI21
aI164
aa(lp291
I64
aI21
aI99
aa(lp292
I64
aI66
aI99
aa(lp293
I192
aI171
aI106
aa(lp294
I147
aI171
aI106
aa(lp295
I147
aI192
aI106
aa(lp296
I147
aI192
aI171
aa(lp297
I147
aI157
aI106
aa(lp298
I147
aI157
aI171
aa(lp299
I165
aI109
aI185
aa(lp300
I156
aI109
aI185
aa(lp301
I156
aI165
aI185
aa(lp302
I156
aI165
aI109
aa(lp303
I98
aI109
aI185
aa(lp304
I156
aI98
aI185
aa(lp305
I156
aI98
aI109
aa(lp306
I98
aI165
aI109
aa(lp307
I156
aI98
aI165
aa(lp308
I80
aI63
aI153
aa(lp309
I80
aI123
aI153
aa(lp310
I80
aI123
aI63
aa(lp311
I166
aI63
aI153
aa(lp312
I80
aI166
aI153
aa(lp313
I80
aI166
aI63
aa(lp314
I123
aI153
aI119
aa(lp315
I80
aI153
aI119
aa(lp316
I80
aI123
aI119
aa(lp317
I80
aI101
aI63
aa(lp318
I80
aI101
aI123
aa(lp319
I101
aI166
aI63
aa(lp320
I80
aI101
aI166
aa(lp321
I101
aI166
aI123
aa(lp322
I80
aI166
aI123
aa(lp323
I165
aI79
aI143
aa(lp324
I128
aI79
aI143
aa(lp325
I128
aI165
aI143
aa(lp326
I128
aI165
aI79
aa(lp327
I166
aI79
aI143
aa(lp328
I128
aI166
aI143
aa(lp329
I128
aI166
aI79
aa(lp330
I128
aI166
aI165
aa(lp331
I156
aI165
aI79
aa(lp332
I128
aI156
aI79
aa(lp333
I128
aI156
aI165
aa(lp334
I165
aI63
aI153
aa(lp335
I128
aI63
aI153
aa(lp336
I128
aI165
aI153
aa(lp337
I128
aI165
aI63
aa(lp338
I128
aI166
aI153
aa(lp339
I128
aI166
aI63
aa(lp340
I165
aI153
aI185
aa(lp341
I128
aI153
aI185
aa(lp342
I128
aI165
aI185
aa(lp343
I140
aI79
aI141
aa(lp344
I128
aI79
aI141
aa(lp345
I128
aI140
aI141
aa(lp346
I128
aI140
aI79
aa(lp347
I128
aI80
aI153
aa(lp348
I128
aI80
aI166
aa(lp349
I128
aI153
aI119
aa(lp350
I128
aI80
aI119
aa(lp351
I128
aI184
aI163
aa(lp352
I128
aI153
aI163
aa(lp353
I128
aI153
aI184
aa(lp354
I153
aI119
aI163
aa(lp355
I128
aI119
aI163
aa(lp356
I124
aI123
aI119
aa(lp357
I124
aI80
aI119
aa(lp358
I124
aI80
aI123
aa(lp359
I124
aI166
aI123
aa(lp360
I124
aI80
aI166
aa(lp361
I124
aI71
aI119
aa(lp362
I124
aI64
aI119
aa(lp363
I124
aI64
aI71
aa(lp364
I167
aI79
aI141
aa(lp365
I167
aI128
aI141
aa(lp366
I167
aI128
aI79
aa(lp367
I167
aI163
aI141
aa(lp368
I167
aI66
aI141
aa(lp369
I167
aI66
aI163
aa(lp370
I167
aI119
aI163
aa(lp371
I167
aI66
aI119
aa(lp372
I128
aI163
aI141
aa(lp373
I167
aI128
aI163
aa(lp374
I167
aI128
aI119
aa(lp375
I167
aI80
aI119
aa(lp376
I167
aI128
aI80
aa(lp377
I167
aI80
aI166
aa(lp378
I167
aI128
aI166
aa(lp379
I83
aI189
aI145
aa(lp380
I83
aI93
aI145
aa(lp381
I83
aI93
aI189
aa(lp382
I83
aI74
aI145
aa(lp383
I83
aI74
aI189
aa(lp384
I93
aI189
aI198
aa(lp385
I83
aI189
aI198
aa(lp386
I83
aI93
aI198
aa(lp387
I83
aI84
aI198
aa(lp388
I83
aI84
aI93
aa(lp389
I111
aI84
aI40
aa(lp390
I83
aI84
aI40
aa(lp391
I83
aI111
aI40
aa(lp392
I83
aI111
aI84
aa(lp393
I111
aI189
aI130
aa(lp394
I83
aI189
aI130
aa(lp395
I83
aI111
aI130
aa(lp396
I83
aI111
aI189
aa(lp397
I83
aI133
aI198
aa(lp398
I83
aI189
aI133
aa(lp399
I111
aI189
aI133
aa(lp400
I83
aI111
aI133
aa(lp401
I84
aI133
aI198
aa(lp402
I83
aI84
aI133
aa(lp403
I111
aI84
aI133
aa(lp404
I22
aI138
aI171
aa(lp405
I22
aI157
aI171
aa(lp406
I22
aI157
aI138
aa(lp407
I22
aI112
aI171
aa(lp408
I22
aI112
aI138
aa(lp409
I111
aI157
aI133
aa(lp410
I22
aI157
aI133
aa(lp411
I22
aI111
aI133
aa(lp412
I22
aI111
aI157
aa(lp413
I22
aI147
aI171
aa(lp414
I22
aI147
aI157
aa(lp415
I112
aI97
aI171
aa(lp416
I22
aI97
aI171
aa(lp417
I22
aI112
aI97
aa(lp418
I111
aI133
aI40
aa(lp419
I22
aI133
aI40
aa(lp420
I22
aI111
aI40
aa(lp421
I97
aI15
aI40
aa(lp422
I22
aI15
aI40
aa(lp423
I22
aI97
aI40
aa(lp424
I22
aI97
aI15
aa(lp425
I112
aI15
aI40
aa(lp426
I22
aI112
aI40
aa(lp427
I22
aI112
aI15
aa(lp428
I112
aI97
aI15
aa(lp429
I55
aI45
aI65
aa(lp430
I55
aI112
aI65
aa(lp431
I55
aI112
aI45
aa(lp432
I112
aI45
aI15
aa(lp433
I55
aI45
aI15
aa(lp434
I55
aI112
aI15
aa(lp435
I44
aI74
aI145
aa(lp436
I44
aI83
aI145
aa(lp437
I44
aI83
aI74
aa(lp438
I44
aI93
aI145
aa(lp439
I44
aI83
aI93
aa(lp440
I44
aI84
aI40
aa(lp441
I44
aI83
aI40
aa(lp442
I44
aI83
aI84
aa(lp443
I44
aI84
aI93
aa(lp444
I56
aI85
aI93
aa(lp445
I56
aI37
aI93
aa(lp446
I56
aI37
aI85
aa(lp447
I56
aI6
aI85
aa(lp448
I56
aI6
aI37
aa(lp449
I56
aI84
aI93
aa(lp450
I56
aI81
aI93
aa(lp451
I56
aI81
aI84
aa(lp452
I85
aI81
aI93
aa(lp453
I56
aI85
aI81
aa(lp454
I56
aI6
aI81
aa(lp455
I56
aI44
aI93
aa(lp456
I56
aI44
aI84
aa(lp457
I44
aI37
aI93
aa(lp458
I56
aI44
aI37
aa(lp459
I13
aI21
aI51
aa(lp460
I35
aI21
aI51
aa(lp461
I35
aI13
aI51
aa(lp462
I35
aI13
aI21
aa(lp463
I13
aI3
aI1
aa(lp464
I35
aI3
aI1
aa(lp465
I35
aI13
aI1
aa(lp466
I35
aI13
aI3
aa(lp467
I1
aI49
aI27
aa(lp468
I35
aI49
aI27
aa(lp469
I35
aI1
aI27
aa(lp470
I35
aI1
aI49
aa(lp471
I3
aI49
aI27
aa(lp472
I35
aI3
aI27
aa(lp473
I35
aI3
aI49
aa(lp474
I3
aI1
aI27
aa(lp475
I113
aI21
aI51
aa(lp476
I113
aI35
aI51
aa(lp477
I113
aI35
aI21
aa(lp478
I13
aI21
aI99
aa(lp479
I113
aI21
aI99
aa(lp480
I113
aI13
aI99
aa(lp481
I113
aI13
aI21
aa(lp482
I35
aI13
aI99
aa(lp483
I113
aI35
aI99
aa(lp484
I113
aI35
aI13
aa(lp485
I173
aI94
aI199
aa(lp486
I173
aI174
aI199
aa(lp487
I173
aI174
aI94
aa(lp488
I173
aI115
aI186
aa(lp489
I173
aI154
aI186
aa(lp490
I173
aI154
aI115
aa(lp491
I50
aI115
aI186
aa(lp492
I173
aI50
aI186
aa(lp493
I173
aI50
aI115
aa(lp494
I88
aI154
aI94
aa(lp495
I127
aI154
aI94
aa(lp496
I127
aI88
aI94
aa(lp497
I127
aI88
aI154
aa(lp498
I88
aI190
aI185
aa(lp499
I127
aI190
aI185
aa(lp500
I127
aI88
aI185
aa(lp501
I127
aI88
aI190
aa(lp502
I88
aI154
aI185
aa(lp503
I127
aI154
aI185
aa(lp504
I95
aI152
aI194
aa(lp505
I135
aI152
aI194
aa(lp506
I135
aI95
aI194
aa(lp507
I135
aI95
aI152
aa(lp508
I95
aI71
aI152
aa(lp509
I135
aI71
aI152
aa(lp510
I135
aI95
aI71
aa(lp511
I135
aI71
aI93
aa(lp512
I135
aI85
aI93
aa(lp513
I135
aI85
aI71
aa(lp514
I135
aI71
aI136
aa(lp515
I135
aI85
aI136
aa(lp516
I95
aI71
aI136
aa(lp517
I135
aI95
aI136
aa(lp518
I135
aI136
aI32
aa(lp519
I135
aI85
aI32
aa(lp520
I160
aI99
aI164
aa(lp521
I160
aI21
aI164
aa(lp522
I160
aI21
aI99
aa(lp523
I113
aI182
aI62
aa(lp524
I160
aI182
aI62
aa(lp525
I160
aI113
aI62
aa(lp526
I160
aI113
aI182
aa(lp527
I160
aI142
aI164
aa(lp528
I160
aI142
aI99
aa(lp529
I160
aI113
aI99
aa(lp530
I160
aI113
aI21
aa(lp531
I21
aI182
aI51
aa(lp532
I160
aI182
aI51
aa(lp533
I160
aI21
aI51
aa(lp534
I160
aI21
aI182
aa(lp535
I113
aI182
aI51
aa(lp536
I160
aI113
aI51
aa(lp537
I113
aI142
aI62
aa(lp538
I160
aI142
aI62
aa(lp539
I160
aI113
aI142
aa(lp540
I113
aI142
aI99
aa(lp541
I139
aI152
aI200
aa(lp542
I139
aI150
aI200
aa(lp543
I139
aI150
aI152
aa(lp544
I139
aI159
aI200
aa(lp545
I139
aI150
aI159
aa(lp546
I139
aI176
aI200
aa(lp547
I139
aI152
aI176
aa(lp548
I139
aI176
aI65
aa(lp549
I139
aI152
aI65
aa(lp550
I139
aI95
aI65
aa(lp551
I139
aI95
aI152
aa(lp552
I139
aI159
aI182
aa(lp553
I139
aI150
aI182
aa(lp554
I55
aI95
aI65
aa(lp555
I139
aI55
aI65
aa(lp556
I139
aI55
aI95
aa(lp557
I159
aI182
aI51
aa(lp558
I139
aI182
aI51
aa(lp559
I139
aI159
aI51
aa(lp560
I55
aI159
aI51
aa(lp561
I139
aI55
aI51
aa(lp562
I139
aI55
aI159
aa(lp563
I139
aI21
aI51
aa(lp564
I139
aI21
aI182
aa(lp565
I139
aI21
aI164
aa(lp566
I139
aI64
aI164
aa(lp567
I139
aI64
aI21
aa(lp568
I139
aI160
aI164
aa(lp569
I139
aI160
aI21
aa(lp570
I139
aI160
aI182
aa(lp571
I149
aI115
aI148
aa(lp572
I149
aI142
aI148
aa(lp573
I149
aI142
aI115
aa(lp574
I149
aI154
aI148
aa(lp575
I149
aI154
aI115
aa(lp576
I149
aI173
aI115
aa(lp577
I149
aI173
aI154
aa(lp578
I50
aI115
aI62
aa(lp579
I149
aI115
aI62
aa(lp580
I149
aI50
aI62
aa(lp581
I149
aI50
aI115
aa(lp582
I173
aI50
aI62
aa(lp583
I149
aI173
aI62
aa(lp584
I149
aI173
aI50
aa(lp585
I180
aI160
aI182
aa(lp586
I180
aI139
aI182
aa(lp587
I180
aI139
aI160
aa(lp588
I180
aI152
aI183
aa(lp589
I180
aI150
aI183
aa(lp590
I180
aI150
aI152
aa(lp591
I180
aI151
aI183
aa(lp592
I180
aI152
aI151
aa(lp593
I152
aI151
aI164
aa(lp594
I180
aI151
aI164
aa(lp595
I180
aI152
aI164
aa(lp596
I83
aI74
aI40
aa(lp597
I26
aI74
aI40
aa(lp598
I26
aI83
aI40
aa(lp599
I26
aI83
aI74
aa(lp600
I26
aI44
aI40
aa(lp601
I26
aI44
aI83
aa(lp602
I26
aI44
aI74
aa(lp603
I56
aI44
aI6
aa(lp604
I26
aI44
aI6
aa(lp605
I26
aI56
aI6
aa(lp606
I26
aI56
aI44
aa(lp607
I158
aI133
aI40
aa(lp608
I158
aI22
aI40
aa(lp609
I158
aI22
aI133
aa(lp610
I158
aI112
aI40
aa(lp611
I158
aI22
aI112
aa(lp612
I158
aI112
aI138
aa(lp613
I158
aI22
aI138
aa(lp614
I157
aI172
aI133
aa(lp615
I158
aI172
aI133
aa(lp616
I158
aI157
aI133
aa(lp617
I158
aI157
aI172
aa(lp618
I196
aI193
aI172
aa(lp619
I158
aI193
aI172
aa(lp620
I158
aI196
aI172
aa(lp621
I158
aI196
aI193
aa(lp622
I158
aI193
aI138
aa(lp623
I158
aI196
aI138
aa(lp624
I158
aI22
aI157
aa(lp625
I158
aI157
aI138
aa(lp626
I158
aI177
aI172
aa(lp627
I158
aI177
aI193
aa(lp628
I158
aI177
aI138
aa(lp629
I157
aI172
aI106
aa(lp630
I158
aI172
aI106
aa(lp631
I158
aI157
aI106
aa(lp632
I158
aI177
aI106
aa(lp633
I158
aI138
aI106
aa(lp634
I195
aI133
aI198
aa(lp635
I195
aI84
aI198
aa(lp636
I195
aI84
aI133
aa(lp637
I195
aI172
aI198
aa(lp638
I195
aI172
aI133
aa(lp639
I195
aI158
aI133
aa(lp640
I195
aI158
aI172
aa(lp641
I195
aI196
aI172
aa(lp642
I195
aI158
aI196
aa(lp643
I172
aI194
aI198
aa(lp644
I195
aI194
aI198
aa(lp645
I195
aI172
aI194
aa(lp646
I193
aI172
aI194
aa(lp647
I195
aI193
aI194
aa(lp648
I195
aI193
aI172
aa(lp649
I196
aI193
aI194
aa(lp650
I195
aI196
aI194
aa(lp651
I195
aI196
aI193
aa(lp652
I72
aI45
aI81
aa(lp653
I72
aI196
aI81
aa(lp654
I72
aI196
aI45
aa(lp655
I72
aI112
aI45
aa(lp656
I72
aI196
aI112
aa(lp657
I112
aI45
aI40
aa(lp658
I72
aI45
aI40
aa(lp659
I72
aI112
aI40
aa(lp660
I72
aI112
aI138
aa(lp661
I72
aI196
aI138
aa(lp662
I72
aI6
aI81
aa(lp663
I72
aI56
aI81
aa(lp664
I72
aI56
aI6
aa(lp665
I72
aI81
aI32
aa(lp666
I72
aI6
aI32
aa(lp667
I72
aI81
aI84
aa(lp668
I72
aI56
aI84
aa(lp669
I195
aI196
aI81
aa(lp670
I72
aI195
aI81
aa(lp671
I72
aI195
aI196
aa(lp672
I72
aI158
aI40
aa(lp673
I72
aI158
aI112
aa(lp674
I72
aI158
aI138
aa(lp675
I72
aI158
aI196
aa(lp676
I72
aI84
aI40
aa(lp677
I72
aI44
aI40
aa(lp678
I72
aI44
aI84
aa(lp679
I72
aI56
aI44
aa(lp680
I72
aI133
aI40
aa(lp681
I72
aI111
aI40
aa(lp682
I72
aI111
aI133
aa(lp683
I72
aI111
aI84
aa(lp684
I72
aI84
aI133
aa(lp685
I72
aI158
aI133
aa(lp686
I72
aI195
aI133
aa(lp687
I72
aI195
aI84
aa(lp688
I72
aI84
aI198
aa(lp689
I72
aI81
aI198
aa(lp690
I72
aI195
aI198
aa(lp691
I195
aI81
aI198
aa(lp692
I72
aI26
aI40
aa(lp693
I72
aI26
aI44
aa(lp694
I72
aI195
aI158
aa(lp695
I118
aI178
aI194
aa(lp696
I118
aI193
aI194
aa(lp697
I118
aI193
aI178
aa(lp698
I118
aI196
aI194
aa(lp699
I118
aI196
aI193
aa(lp700
I118
aI196
aI178
aa(lp701
I118
aI95
aI194
aa(lp702
I118
aI135
aI194
aa(lp703
I118
aI135
aI95
aa(lp704
I118
aI178
aI65
aa(lp705
I118
aI196
aI65
aa(lp706
I118
aI152
aI194
aa(lp707
I118
aI95
aI152
aa(lp708
I118
aI178
aI152
aa(lp709
I118
aI95
aI178
aa(lp710
I118
aI195
aI194
aa(lp711
I118
aI195
aI196
aa(lp712
I152
aI151
aI194
aa(lp713
I118
aI151
aI194
aa(lp714
I118
aI152
aI151
aa(lp715
I118
aI178
aI151
aa(lp716
I162
aI115
aI163
aa(lp717
I162
aI140
aI163
aa(lp718
I162
aI140
aI115
aa(lp719
I162
aI142
aI163
aa(lp720
I162
aI142
aI115
aa(lp721
I162
aI163
aI141
aa(lp722
I162
aI140
aI141
aa(lp723
I162
aI142
aI141
aa(lp724
I162
aI149
aI115
aa(lp725
I162
aI149
aI142
aa(lp726
I162
aI142
aI99
aa(lp727
I162
aI113
aI99
aa(lp728
I162
aI113
aI142
aa(lp729
I162
aI66
aI141
aa(lp730
I162
aI142
aI66
aa(lp731
I162
aI66
aI99
aa(lp732
I162
aI142
aI62
aa(lp733
I162
aI113
aI62
aa(lp734
I149
aI142
aI62
aa(lp735
I162
aI149
aI62
aa(lp736
I91
aI88
aI94
aa(lp737
I91
aI68
aI94
aa(lp738
I91
aI68
aI88
aa(lp739
I91
aI174
aI94
aa(lp740
I91
aI68
aI174
aa(lp741
I146
aI105
aI190
aa(lp742
I91
aI105
aI190
aa(lp743
I91
aI146
aI190
aa(lp744
I91
aI146
aI105
aa(lp745
I146
aI88
aI190
aa(lp746
I91
aI88
aI190
aa(lp747
I91
aI146
aI88
aa(lp748
I146
aI88
aI105
aa(lp749
I91
aI88
aI105
aa(lp750
I91
aI127
aI190
aa(lp751
I91
aI127
aI88
aa(lp752
I91
aI127
aI94
aa(lp753
I91
aI173
aI94
aa(lp754
I91
aI173
aI174
aa(lp755
I127
aI173
aI94
aa(lp756
I91
aI127
aI173
aa(lp757
I97
aI53
aI105
aa(lp758
I191
aI53
aI105
aa(lp759
I191
aI97
aI105
aa(lp760
I191
aI97
aI53
aa(lp761
I97
aI192
aI171
aa(lp762
I191
aI192
aI171
aa(lp763
I191
aI97
aI171
aa(lp764
I191
aI97
aI192
aa(lp765
I146
aI192
aI105
aa(lp766
I191
aI192
aI105
aa(lp767
I191
aI146
aI105
aa(lp768
I191
aI146
aI192
aa(lp769
I191
aI88
aI105
aa(lp770
I191
aI146
aI88
aa(lp771
I191
aI88
aI192
aa(lp772
I191
aI91
aI105
aa(lp773
I191
aI91
aI88
aa(lp774
I191
aI68
aI88
aa(lp775
I191
aI91
aI68
aa(lp776
I191
aI192
aI176
aa(lp777
I191
aI88
aI176
aa(lp778
I191
aI68
aI176
aa(lp779
I97
aI53
aI15
aa(lp780
I191
aI53
aI15
aa(lp781
I191
aI97
aI15
aa(lp782
I191
aI68
aI174
aa(lp783
I191
aI91
aI174
aa(lp784
I176
aI171
aI106
aa(lp785
I191
aI171
aI106
aa(lp786
I191
aI176
aI106
aa(lp787
I191
aI176
aI171
aa(lp788
I191
aI192
aI106
aa(lp789
I39
aI11
aI27
aa(lp790
I39
aI38
aI27
aa(lp791
I39
aI38
aI11
aa(lp792
I39
aI53
aI27
aa(lp793
I39
aI53
aI11
aa(lp794
I39
aI53
aI105
aa(lp795
I39
aI97
aI105
aa(lp796
I39
aI97
aI53
aa(lp797
I53
aI75
aI105
aa(lp798
I39
aI75
aI105
aa(lp799
I39
aI53
aI75
aa(lp800
I39
aI75
aI11
aa(lp801
I3
aI140
aI79
aa(lp802
I46
aI140
aI79
aa(lp803
I46
aI3
aI79
aa(lp804
I46
aI3
aI140
aa(lp805
I46
aI66
aI141
aa(lp806
I46
aI162
aI141
aa(lp807
I46
aI162
aI66
aa(lp808
I46
aI140
aI141
aa(lp809
I46
aI162
aI140
aa(lp810
I46
aI66
aI99
aa(lp811
I46
aI162
aI99
aa(lp812
I13
aI66
aI99
aa(lp813
I46
aI13
aI99
aa(lp814
I46
aI13
aI66
aa(lp815
I46
aI35
aI99
aa(lp816
I46
aI35
aI13
aa(lp817
I46
aI13
aI3
aa(lp818
I46
aI35
aI3
aa(lp819
I165
aI125
aI109
aa(lp820
I100
aI125
aI109
aa(lp821
I100
aI165
aI109
aa(lp822
I100
aI165
aI125
aa(lp823
I5
aI59
aI96
aa(lp824
I5
aI52
aI96
aa(lp825
I5
aI52
aI59
aa(lp826
I5
aI102
aI96
aa(lp827
I5
aI102
aI52
aa(lp828
I5
aI116
aI96
aa(lp829
I5
aI102
aI116
aa(lp830
I5
aI155
aI96
aa(lp831
I5
aI59
aI155
aa(lp832
I5
aI41
aI59
aa(lp833
I5
aI41
aI52
aa(lp834
I30
aI21
aI99
aa(lp835
I30
aI64
aI99
aa(lp836
I30
aI64
aI21
aa(lp837
I30
aI66
aI99
aa(lp838
I30
aI64
aI66
aa(lp839
I30
aI13
aI99
aa(lp840
I30
aI13
aI21
aa(lp841
I30
aI13
aI66
aa(lp842
I64
aI21
aI25
aa(lp843
I30
aI21
aI25
aa(lp844
I30
aI64
aI25
aa(lp845
I13
aI21
aI25
aa(lp846
I30
aI13
aI25
aa(lp847
I30
aI46
aI66
aa(lp848
I30
aI46
aI13
aa(lp849
I110
aI147
aI157
aa(lp850
I110
aI22
aI157
aa(lp851
I110
aI22
aI147
aa(lp852
I110
aI111
aI40
aa(lp853
I110
aI22
aI40
aa(lp854
I110
aI22
aI111
aa(lp855
I147
aI97
aI171
aa(lp856
I110
aI97
aI171
aa(lp857
I110
aI147
aI171
aa(lp858
I110
aI147
aI97
aa(lp859
I110
aI22
aI171
aa(lp860
I110
aI22
aI97
aa(lp861
I110
aI97
aI40
aa(lp862
I131
aI192
aI171
aa(lp863
I131
aI97
aI171
aa(lp864
I131
aI97
aI192
aa(lp865
I131
aI147
aI171
aa(lp866
I131
aI147
aI192
aa(lp867
I131
aI147
aI97
aa(lp868
I147
aI146
aI103
aa(lp869
I131
aI146
aI103
aa(lp870
I131
aI147
aI103
aa(lp871
I131
aI147
aI146
aa(lp872
I147
aI146
aI192
aa(lp873
I131
aI146
aI192
aa(lp874
I131
aI110
aI97
aa(lp875
I131
aI110
aI147
aa(lp876
I131
aI192
aI105
aa(lp877
I131
aI146
aI105
aa(lp878
I131
aI191
aI105
aa(lp879
I131
aI191
aI192
aa(lp880
I131
aI97
aI105
aa(lp881
I131
aI191
aI97
aa(lp882
I117
aI140
aI79
aa(lp883
I117
aI3
aI79
aa(lp884
I117
aI3
aI140
aa(lp885
I92
aI156
aI98
aa(lp886
I117
aI156
aI98
aa(lp887
I117
aI92
aI98
aa(lp888
I117
aI92
aI156
aa(lp889
I36
aI38
aI11
aa(lp890
I61
aI38
aI11
aa(lp891
I61
aI36
aI11
aa(lp892
I61
aI36
aI38
aa(lp893
I61
aI39
aI11
aa(lp894
I61
aI39
aI38
aa(lp895
I39
aI41
aI11
aa(lp896
I61
aI41
aI11
aa(lp897
I61
aI39
aI41
aa(lp898
I61
aI41
aI52
aa(lp899
I61
aI5
aI52
aa(lp900
I61
aI5
aI41
aa(lp901
I4
aI75
aI11
aa(lp902
I4
aI38
aI11
aa(lp903
I4
aI38
aI75
aa(lp904
I4
aI75
aI27
aa(lp905
I4
aI38
aI27
aa(lp906
I4
aI49
aI27
aa(lp907
I4
aI75
aI49
aa(lp908
I4
aI3
aI27
aa(lp909
I4
aI3
aI49
aa(lp910
I92
aI75
aI49
aa(lp911
I4
aI92
aI49
aa(lp912
I4
aI92
aI75
aa(lp913
I127
aI98
aI190
aa(lp914
I76
aI98
aI190
aa(lp915
I76
aI127
aI190
aa(lp916
I76
aI127
aI98
aa(lp917
I76
aI125
aI109
aa(lp918
I76
aI165
aI109
aa(lp919
I76
aI165
aI125
aa(lp920
I76
aI98
aI109
aa(lp921
I76
aI98
aI165
aa(lp922
I170
aI140
aI79
aa(lp923
I170
aI128
aI79
aa(lp924
I170
aI128
aI140
aa(lp925
I170
aI156
aI79
aa(lp926
I170
aI128
aI156
aa(lp927
I170
aI117
aI79
aa(lp928
I170
aI117
aI140
aa(lp929
I117
aI156
aI79
aa(lp930
I170
aI117
aI156
aa(lp931
I117
aI140
aI186
aa(lp932
I170
aI140
aI186
aa(lp933
I170
aI117
aI186
aa(lp934
I117
aI156
aI186
aa(lp935
I170
aI156
aI186
aa(lp936
I170
aI165
aI185
aa(lp937
I170
aI156
aI185
aa(lp938
I170
aI156
aI165
aa(lp939
I170
aI128
aI185
aa(lp940
I170
aI128
aI165
aa(lp941
I153
aI184
aI185
aa(lp942
I170
aI184
aI185
aa(lp943
I170
aI153
aI185
aa(lp944
I170
aI153
aI184
aa(lp945
I170
aI128
aI153
aa(lp946
I170
aI128
aI184
aa(lp947
I170
aI184
aI141
aa(lp948
I170
aI140
aI141
aa(lp949
I170
aI140
aI184
aa(lp950
I170
aI128
aI141
aa(lp951
I154
aI186
aI185
aa(lp952
I170
aI186
aI185
aa(lp953
I170
aI154
aI185
aa(lp954
I170
aI154
aI186
aa(lp955
I170
aI154
aI184
aa(lp956
I170
aI184
aI186
aa(lp957
I170
aI115
aI186
aa(lp958
I170
aI115
aI184
aa(lp959
I140
aI115
aI186
aa(lp960
I170
aI140
aI115
aa(lp961
I170
aI163
aI141
aa(lp962
I170
aI184
aI163
aa(lp963
I170
aI128
aI163
aa(lp964
I7
aI21
aI51
aa(lp965
I7
aI13
aI51
aa(lp966
I7
aI13
aI21
aa(lp967
I7
aI55
aI51
aa(lp968
I7
aI139
aI51
aa(lp969
I7
aI139
aI55
aa(lp970
I35
aI1
aI51
aa(lp971
I7
aI1
aI51
aa(lp972
I7
aI35
aI51
aa(lp973
I7
aI35
aI1
aa(lp974
I7
aI35
aI13
aa(lp975
I7
aI13
aI1
aa(lp976
I30
aI13
aI1
aa(lp977
I7
aI30
aI1
aa(lp978
I7
aI30
aI13
aa(lp979
I137
aI159
aI199
aa(lp980
I137
aI174
aI199
aa(lp981
I137
aI174
aI159
aa(lp982
I137
aI173
aI199
aa(lp983
I137
aI173
aI174
aa(lp984
I137
aI182
aI199
aa(lp985
I137
aI159
aI182
aa(lp986
I173
aI182
aI199
aa(lp987
I137
aI173
aI182
aa(lp988
I137
aI182
aI51
aa(lp989
I137
aI159
aI51
aa(lp990
I173
aI50
aI174
aa(lp991
I137
aI50
aI174
aa(lp992
I137
aI173
aI50
aa(lp993
I137
aI113
aI51
aa(lp994
I137
aI113
aI182
aa(lp995
I137
aI35
aI51
aa(lp996
I137
aI113
aI35
aa(lp997
I50
aI174
aI49
aa(lp998
I137
aI174
aI49
aa(lp999
I137
aI50
aI49
aa(lp1000
I35
aI50
aI49
aa(lp1001
I137
aI35
aI49
aa(lp1002
I137
aI35
aI50
aa(lp1003
I113
aI35
aI50
aa(lp1004
I137
aI113
aI50
aa(lp1005
I137
aI182
aI62
aa(lp1006
I137
aI113
aI62
aa(lp1007
I173
aI182
aI62
aa(lp1008
I137
aI173
aI62
aa(lp1009
I113
aI50
aI62
aa(lp1010
I137
aI50
aI62
aa(lp1011
I173
aI154
aI94
aa(lp1012
I188
aI154
aI94
aa(lp1013
I188
aI173
aI94
aa(lp1014
I188
aI173
aI154
aa(lp1015
I188
aI127
aI94
aa(lp1016
I188
aI127
aI154
aa(lp1017
I188
aI127
aI173
aa(lp1018
I127
aI173
aI50
aa(lp1019
I188
aI173
aI50
aa(lp1020
I188
aI127
aI50
aa(lp1021
I188
aI154
aI186
aa(lp1022
I188
aI173
aI186
aa(lp1023
I188
aI50
aI186
aa(lp1024
I92
aI50
aI186
aa(lp1025
I188
aI92
aI186
aa(lp1026
I188
aI92
aI50
aa(lp1027
I127
aI92
aI50
aa(lp1028
I188
aI127
aI92
aa(lp1029
I188
aI186
aI185
aa(lp1030
I188
aI154
aI185
aa(lp1031
I127
aI92
aI98
aa(lp1032
I188
aI92
aI98
aa(lp1033
I188
aI127
aI98
aa(lp1034
I188
aI127
aI185
aa(lp1035
I127
aI98
aI185
aa(lp1036
I188
aI98
aI185
aa(lp1037
I188
aI170
aI185
aa(lp1038
I188
aI170
aI186
aa(lp1039
I188
aI156
aI185
aa(lp1040
I188
aI170
aI156
aa(lp1041
I188
aI156
aI186
aa(lp1042
I188
aI156
aI98
aa(lp1043
I188
aI92
aI156
aa(lp1044
I188
aI117
aI186
aa(lp1045
I188
aI117
aI156
aa(lp1046
I117
aI92
aI186
aa(lp1047
I188
aI117
aI92
aa(lp1048
I139
aI55
aI32
aa(lp1049
I161
aI55
aI32
aa(lp1050
I161
aI139
aI32
aa(lp1051
I161
aI139
aI55
aa(lp1052
I161
aI55
aI95
aa(lp1053
I161
aI139
aI95
aa(lp1054
I161
aI64
aI164
aa(lp1055
I161
aI139
aI164
aa(lp1056
I161
aI139
aI64
aa(lp1057
I161
aI71
aI136
aa(lp1058
I161
aI95
aI136
aa(lp1059
I161
aI95
aI71
aa(lp1060
I161
aI71
aI164
aa(lp1061
I161
aI64
aI71
aa(lp1062
I64
aI71
aI136
aa(lp1063
I161
aI64
aI136
aa(lp1064
I161
aI95
aI152
aa(lp1065
I161
aI139
aI152
aa(lp1066
I71
aI152
aI164
aa(lp1067
I161
aI152
aI164
aa(lp1068
I161
aI71
aI152
aa(lp1069
I161
aI180
aI164
aa(lp1070
I161
aI180
aI152
aa(lp1071
I161
aI160
aI164
aa(lp1072
I161
aI139
aI160
aa(lp1073
I180
aI160
aI164
aa(lp1074
I161
aI180
aI160
aa(lp1075
I161
aI180
aI139
aa(lp1076
I161
aI139
aI182
aa(lp1077
I161
aI180
aI182
aa(lp1078
I161
aI150
aI152
aa(lp1079
I161
aI139
aI150
aa(lp1080
I161
aI150
aI182
aa(lp1081
I161
aI180
aI150
aa(lp1082
I180
aI150
aI182
aa(lp1083
I67
aI32
aI23
aa(lp1084
I67
aI136
aI23
aa(lp1085
I67
aI136
aI32
aa(lp1086
I161
aI136
aI32
aa(lp1087
I67
aI161
aI32
aa(lp1088
I67
aI161
aI136
aa(lp1089
I67
aI139
aI32
aa(lp1090
I67
aI161
aI139
aa(lp1091
I67
aI64
aI21
aa(lp1092
I67
aI139
aI21
aa(lp1093
I67
aI139
aI64
aa(lp1094
I67
aI64
aI136
aa(lp1095
I67
aI161
aI64
aa(lp1096
I64
aI25
aI23
aa(lp1097
I67
aI25
aI23
aa(lp1098
I67
aI64
aI23
aa(lp1099
I67
aI64
aI25
aa(lp1100
I67
aI71
aI23
aa(lp1101
I67
aI71
aI136
aa(lp1102
I64
aI71
aI23
aa(lp1103
I67
aI64
aI71
aa(lp1104
I67
aI55
aI32
aa(lp1105
I67
aI139
aI55
aa(lp1106
I181
aI182
aI199
aa(lp1107
I181
aI150
aI199
aa(lp1108
I181
aI150
aI182
aa(lp1109
I181
aI180
aI182
aa(lp1110
I181
aI180
aI150
aa(lp1111
I181
aI150
aI183
aa(lp1112
I181
aI180
aI183
aa(lp1113
I181
aI173
aI199
aa(lp1114
I181
aI173
aI182
aa(lp1115
I181
aI182
aI62
aa(lp1116
I181
aI173
aI62
aa(lp1117
I181
aI160
aI62
aa(lp1118
I181
aI160
aI182
aa(lp1119
I180
aI160
aI62
aa(lp1120
I181
aI180
aI62
aa(lp1121
I181
aI180
aI160
aa(lp1122
I181
aI94
aI183
aa(lp1123
I181
aI150
aI94
aa(lp1124
I181
aI94
aI199
aa(lp1125
I94
aI148
aI183
aa(lp1126
I181
aI148
aI183
aa(lp1127
I181
aI94
aI148
aa(lp1128
I129
aI123
aI122
aa(lp1129
I129
aI101
aI122
aa(lp1130
I129
aI101
aI123
aa(lp1131
I124
aI123
aI122
aa(lp1132
I129
aI124
aI122
aa(lp1133
I129
aI124
aI123
aa(lp1134
I129
aI166
aI123
aa(lp1135
I129
aI101
aI166
aa(lp1136
I134
aI135
aI95
aa(lp1137
I134
aI118
aI95
aa(lp1138
I134
aI118
aI135
aa(lp1139
I134
aI178
aI65
aa(lp1140
I134
aI95
aI65
aa(lp1141
I134
aI95
aI178
aa(lp1142
I134
aI118
aI65
aa(lp1143
I134
aI118
aI178
aa(lp1144
I134
aI55
aI65
aa(lp1145
I134
aI55
aI95
aa(lp1146
I134
aI136
aI32
aa(lp1147
I134
aI135
aI32
aa(lp1148
I134
aI135
aI136
aa(lp1149
I134
aI95
aI136
aa(lp1150
I134
aI81
aI65
aa(lp1151
I134
aI196
aI65
aa(lp1152
I134
aI196
aI81
aa(lp1153
I134
aI118
aI196
aa(lp1154
I118
aI196
aI81
aa(lp1155
I134
aI118
aI81
aa(lp1156
I134
aI45
aI65
aa(lp1157
I134
aI55
aI45
aa(lp1158
I55
aI45
aI32
aa(lp1159
I134
aI45
aI32
aa(lp1160
I134
aI55
aI32
aa(lp1161
I134
aI161
aI32
aa(lp1162
I134
aI161
aI55
aa(lp1163
I134
aI161
aI95
aa(lp1164
I134
aI45
aI81
aa(lp1165
I45
aI81
aI32
aa(lp1166
I134
aI81
aI32
aa(lp1167
I134
aI85
aI32
aa(lp1168
I134
aI85
aI81
aa(lp1169
I134
aI135
aI85
aa(lp1170
I135
aI85
aI81
aa(lp1171
I134
aI135
aI81
aa(lp1172
I134
aI161
aI136
aa(lp1173
I197
aI196
aI81
aa(lp1174
I197
aI195
aI81
aa(lp1175
I197
aI195
aI196
aa(lp1176
I197
aI118
aI81
aa(lp1177
I197
aI118
aI196
aa(lp1178
I197
aI118
aI195
aa(lp1179
I197
aI81
aI198
aa(lp1180
I197
aI195
aI198
aa(lp1181
I197
aI135
aI81
aa(lp1182
I197
aI134
aI81
aa(lp1183
I197
aI134
aI135
aa(lp1184
I197
aI134
aI118
aa(lp1185
I197
aI118
aI135
aa(lp1186
I197
aI135
aI194
aa(lp1187
I197
aI118
aI194
aa(lp1188
I197
aI195
aI194
aa(lp1189
I197
aI85
aI81
aa(lp1190
I197
aI135
aI85
aa(lp1191
I197
aI194
aI198
aa(lp1192
I197
aI93
aI198
aa(lp1193
I197
aI81
aI93
aa(lp1194
I197
aI85
aI93
aa(lp1195
I197
aI135
aI93
aa(lp1196
I93
aI194
aI198
aa(lp1197
I197
aI93
aI194
aa(lp1198
I71
aI93
aI194
aa(lp1199
I197
aI71
aI194
aa(lp1200
I197
aI71
aI93
aa(lp1201
I135
aI71
aI194
aa(lp1202
I197
aI135
aI71
aa(lp1203
I120
aI115
aI186
aa(lp1204
I120
aI50
aI186
aa(lp1205
I120
aI50
aI115
aa(lp1206
I120
aI115
aI62
aa(lp1207
I120
aI50
aI62
aa(lp1208
I120
aI113
aI62
aa(lp1209
I120
aI113
aI50
aa(lp1210
I120
aI92
aI186
aa(lp1211
I120
aI92
aI50
aa(lp1212
I120
aI117
aI186
aa(lp1213
I120
aI117
aI92
aa(lp1214
I120
aI140
aI186
aa(lp1215
I120
aI117
aI140
aa(lp1216
I120
aI140
aI115
aa(lp1217
I120
aI162
aI115
aa(lp1218
I120
aI162
aI140
aa(lp1219
I120
aI149
aI115
aa(lp1220
I120
aI162
aI149
aa(lp1221
I120
aI50
aI49
aa(lp1222
I120
aI35
aI49
aa(lp1223
I120
aI35
aI50
aa(lp1224
I120
aI113
aI35
aa(lp1225
I120
aI149
aI62
aa(lp1226
I92
aI50
aI49
aa(lp1227
I120
aI92
aI49
aa(lp1228
I120
aI3
aI140
aa(lp1229
I120
aI117
aI3
aa(lp1230
I120
aI162
aI62
aa(lp1231
I120
aI162
aI113
aa(lp1232
I120
aI3
aI49
aa(lp1233
I120
aI35
aI3
aa(lp1234
I120
aI35
aI99
aa(lp1235
I120
aI113
aI99
aa(lp1236
I120
aI162
aI99
aa(lp1237
I120
aI4
aI49
aa(lp1238
I120
aI4
aI92
aa(lp1239
I4
aI117
aI92
aa(lp1240
I120
aI4
aI117
aa(lp1241
I120
aI46
aI140
aa(lp1242
I120
aI46
aI3
aa(lp1243
I120
aI46
aI162
aa(lp1244
I4
aI117
aI3
aa(lp1245
I120
aI4
aI3
aa(lp1246
I120
aI46
aI35
aa(lp1247
I120
aI46
aI99
aa(lp1248
I104
aI173
aI50
aa(lp1249
I104
aI127
aI50
aa(lp1250
I104
aI127
aI173
aa(lp1251
I104
aI91
aI173
aa(lp1252
I104
aI91
aI127
aa(lp1253
I104
aI50
aI174
aa(lp1254
I104
aI173
aI174
aa(lp1255
I104
aI91
aI174
aa(lp1256
I104
aI174
aI49
aa(lp1257
I104
aI50
aI49
aa(lp1258
I104
aI75
aI49
aa(lp1259
I104
aI92
aI49
aa(lp1260
I104
aI92
aI75
aa(lp1261
I104
aI92
aI50
aa(lp1262
I104
aI127
aI92
aa(lp1263
I104
aI53
aI49
aa(lp1264
I104
aI53
aI75
aa(lp1265
I127
aI75
aI190
aa(lp1266
I104
aI75
aI190
aa(lp1267
I104
aI127
aI190
aa(lp1268
I104
aI127
aI75
aa(lp1269
I104
aI91
aI190
aa(lp1270
I104
aI75
aI105
aa(lp1271
I104
aI53
aI105
aa(lp1272
I75
aI105
aI190
aa(lp1273
I104
aI105
aI190
aa(lp1274
I104
aI91
aI105
aa(lp1275
I104
aI191
aI105
aa(lp1276
I104
aI191
aI53
aa(lp1277
I104
aI191
aI91
aa(lp1278
I24
aI53
aI15
aa(lp1279
I24
aI1
aI15
aa(lp1280
I24
aI1
aI53
aa(lp1281
I24
aI191
aI15
aa(lp1282
I24
aI191
aI53
aa(lp1283
I7
aI1
aI15
aa(lp1284
I24
aI7
aI15
aa(lp1285
I24
aI7
aI1
aa(lp1286
I7
aI55
aI15
aa(lp1287
I24
aI55
aI15
aa(lp1288
I24
aI7
aI55
aa(lp1289
I24
aI1
aI51
aa(lp1290
I24
aI7
aI51
aa(lp1291
I24
aI174
aI49
aa(lp1292
I24
aI137
aI49
aa(lp1293
I24
aI137
aI174
aa(lp1294
I24
aI174
aI159
aa(lp1295
I24
aI137
aI159
aa(lp1296
I24
aI49
aI27
aa(lp1297
I24
aI53
aI27
aa(lp1298
I24
aI53
aI49
aa(lp1299
I24
aI1
aI27
aa(lp1300
I24
aI1
aI49
aa(lp1301
I24
aI104
aI49
aa(lp1302
I24
aI104
aI53
aa(lp1303
I24
aI104
aI191
aa(lp1304
I24
aI104
aI174
aa(lp1305
I24
aI159
aI51
aa(lp1306
I24
aI137
aI51
aa(lp1307
I24
aI35
aI51
aa(lp1308
I24
aI35
aI1
aa(lp1309
I24
aI35
aI49
aa(lp1310
I24
aI91
aI174
aa(lp1311
I24
aI191
aI174
aa(lp1312
I24
aI191
aI91
aa(lp1313
I24
aI104
aI91
aa(lp1314
I24
aI137
aI35
aa(lp1315
I147
aI31
aI103
aa(lp1316
I78
aI31
aI103
aa(lp1317
I78
aI147
aI103
aa(lp1318
I78
aI147
aI31
aa(lp1319
I110
aI147
aI31
aa(lp1320
I78
aI110
aI31
aa(lp1321
I78
aI110
aI147
aa(lp1322
I78
aI131
aI103
aa(lp1323
I78
aI131
aI147
aa(lp1324
I78
aI131
aI110
aa(lp1325
I78
aI110
aI97
aa(lp1326
I78
aI131
aI97
aa(lp1327
I78
aI146
aI103
aa(lp1328
I78
aI131
aI146
aa(lp1329
I69
aI79
aI141
aa(lp1330
I69
aI140
aI141
aa(lp1331
I69
aI140
aI79
aa(lp1332
I69
aI46
aI141
aa(lp1333
I69
aI46
aI140
aa(lp1334
I69
aI46
aI79
aa(lp1335
I69
aI167
aI141
aa(lp1336
I69
aI167
aI79
aa(lp1337
I69
aI66
aI141
aa(lp1338
I69
aI167
aI66
aa(lp1339
I69
aI46
aI66
aa(lp1340
I69
aI166
aI79
aa(lp1341
I69
aI128
aI79
aa(lp1342
I69
aI128
aI166
aa(lp1343
I69
aI167
aI128
aa(lp1344
I69
aI167
aI166
aa(lp1345
I69
aI3
aI79
aa(lp1346
I69
aI46
aI3
aa(lp1347
I69
aI79
aI143
aa(lp1348
I69
aI166
aI143
aa(lp1349
I76
aI36
aI125
aa(lp1350
I89
aI36
aI125
aa(lp1351
I89
aI76
aI125
aa(lp1352
I89
aI76
aI36
aa(lp1353
I89
aI165
aI125
aa(lp1354
I89
aI100
aI125
aa(lp1355
I89
aI100
aI165
aa(lp1356
I89
aI76
aI165
aa(lp1357
I144
aI125
aI109
aa(lp1358
I144
aI100
aI109
aa(lp1359
I144
aI100
aI125
aa(lp1360
I101
aI63
aI109
aa(lp1361
I144
aI63
aI109
aa(lp1362
I144
aI101
aI109
aa(lp1363
I144
aI101
aI63
aa(lp1364
I100
aI101
aI63
aa(lp1365
I144
aI100
aI63
aa(lp1366
I144
aI100
aI101
aa(lp1367
I102
aI125
aI109
aa(lp1368
I144
aI102
aI109
aa(lp1369
I144
aI102
aI125
aa(lp1370
I165
aI63
aI109
aa(lp1371
I144
aI165
aI109
aa(lp1372
I144
aI165
aI63
aa(lp1373
I144
aI100
aI165
aa(lp1374
I100
aI165
aI63
aa(lp1375
I144
aI109
aI96
aa(lp1376
I144
aI169
aI96
aa(lp1377
I144
aI169
aI109
aa(lp1378
I144
aI102
aI96
aa(lp1379
I144
aI102
aI169
aa(lp1380
I82
aI169
aI145
aa(lp1381
I82
aI126
aI145
aa(lp1382
I82
aI126
aI169
aa(lp1383
I82
aI116
aI145
aa(lp1384
I82
aI116
aI169
aa(lp1385
I82
aI74
aI145
aa(lp1386
I82
aI116
aI74
aa(lp1387
I82
aI102
aI169
aa(lp1388
I82
aI102
aI116
aa(lp1389
I82
aI144
aI169
aa(lp1390
I82
aI144
aI102
aa(lp1391
I5
aI116
aI74
aa(lp1392
I82
aI5
aI74
aa(lp1393
I82
aI5
aI116
aa(lp1394
I82
aI5
aI102
aa(lp1395
I54
aI155
aI96
aa(lp1396
I54
aI116
aI96
aa(lp1397
I54
aI116
aI155
aa(lp1398
I54
aI5
aI96
aa(lp1399
I54
aI5
aI155
aa(lp1400
I54
aI5
aI116
aa(lp1401
I54
aI116
aI74
aa(lp1402
I54
aI5
aI74
aa(lp1403
I54
aI187
aI155
aa(lp1404
I54
aI116
aI187
aa(lp1405
I54
aI74
aI187
aa(lp1406
I187
aI155
aI130
aa(lp1407
I54
aI155
aI130
aa(lp1408
I54
aI187
aI130
aa(lp1409
I54
aI74
aI130
aa(lp1410
I54
aI31
aI130
aa(lp1411
I54
aI31
aI155
aa(lp1412
I54
aI59
aI155
aa(lp1413
I54
aI31
aI59
aa(lp1414
I54
aI5
aI59
aa(lp1415
I5
aI31
aI59
aa(lp1416
I54
aI5
aI31
aa(lp1417
I54
aI111
aI130
aa(lp1418
I54
aI83
aI130
aa(lp1419
I54
aI83
aI111
aa(lp1420
I54
aI111
aI40
aa(lp1421
I54
aI110
aI40
aa(lp1422
I54
aI110
aI111
aa(lp1423
I54
aI74
aI40
aa(lp1424
I54
aI26
aI40
aa(lp1425
I54
aI26
aI74
aa(lp1426
I54
aI189
aI130
aa(lp1427
I54
aI74
aI189
aa(lp1428
I54
aI83
aI189
aa(lp1429
I54
aI83
aI74
aa(lp1430
I54
aI83
aI40
aa(lp1431
I70
aI64
aI25
aa(lp1432
I70
aI30
aI25
aa(lp1433
I70
aI30
aI64
aa(lp1434
I70
aI64
aI66
aa(lp1435
I70
aI30
aI66
aa(lp1436
I70
aI66
aI119
aa(lp1437
I70
aI64
aI119
aa(lp1438
I70
aI25
aI23
aa(lp1439
I70
aI64
aI23
aa(lp1440
I2
aI1
aI27
aa(lp1441
I2
aI3
aI27
aa(lp1442
I2
aI3
aI1
aa(lp1443
I2
aI13
aI1
aa(lp1444
I2
aI13
aI3
aa(lp1445
I2
aI30
aI1
aa(lp1446
I2
aI30
aI13
aa(lp1447
I2
aI30
aI25
aa(lp1448
I2
aI70
aI25
aa(lp1449
I2
aI70
aI30
aa(lp1450
I2
aI46
aI3
aa(lp1451
I2
aI46
aI13
aa(lp1452
I2
aI30
aI46
aa(lp1453
I2
aI46
aI66
aa(lp1454
I2
aI30
aI66
aa(lp1455
I132
aI147
aI157
aa(lp1456
I132
aI110
aI157
aa(lp1457
I132
aI110
aI147
aa(lp1458
I132
aI147
aI31
aa(lp1459
I132
aI110
aI31
aa(lp1460
I132
aI130
aI103
aa(lp1461
I132
aI31
aI103
aa(lp1462
I132
aI31
aI130
aa(lp1463
I132
aI147
aI103
aa(lp1464
I132
aI157
aI133
aa(lp1465
I132
aI111
aI133
aa(lp1466
I132
aI111
aI157
aa(lp1467
I132
aI22
aI157
aa(lp1468
I132
aI22
aI111
aa(lp1469
I132
aI110
aI22
aa(lp1470
I132
aI110
aI111
aa(lp1471
I132
aI54
aI130
aa(lp1472
I132
aI54
aI31
aa(lp1473
I132
aI111
aI130
aa(lp1474
I132
aI54
aI111
aa(lp1475
I54
aI110
aI31
aa(lp1476
I132
aI54
aI110
aa(lp1477
I132
aI133
aI130
aa(lp1478
I132
aI172
aI130
aa(lp1479
I132
aI172
aI133
aa(lp1480
I132
aI157
aI172
aa(lp1481
I132
aI189
aI130
aa(lp1482
I132
aI189
aI133
aa(lp1483
I132
aI111
aI189
aa(lp1484
I90
aI41
aI11
aa(lp1485
I90
aI61
aI11
aa(lp1486
I90
aI61
aI41
aa(lp1487
I90
aI36
aI11
aa(lp1488
I90
aI61
aI36
aa(lp1489
I76
aI36
aI11
aa(lp1490
I90
aI76
aI11
aa(lp1491
I90
aI76
aI36
aa(lp1492
I90
aI41
aI52
aa(lp1493
I90
aI61
aI52
aa(lp1494
I90
aI52
aI103
aa(lp1495
I90
aI41
aI103
aa(lp1496
I90
aI36
aI125
aa(lp1497
I90
aI76
aI125
aa(lp1498
I90
aI109
aI103
aa(lp1499
I90
aI52
aI109
aa(lp1500
I76
aI109
aI103
aa(lp1501
I90
aI76
aI103
aa(lp1502
I90
aI76
aI109
aa(lp1503
I125
aI52
aI109
aa(lp1504
I90
aI125
aI109
aa(lp1505
I90
aI125
aI52
aa(lp1506
I60
aI38
aI11
aa(lp1507
I60
aI36
aI11
aa(lp1508
I60
aI36
aI38
aa(lp1509
I60
aI4
aI11
aa(lp1510
I60
aI4
aI38
aa(lp1511
I4
aI36
aI11
aa(lp1512
I60
aI4
aI36
aa(lp1513
I3
aI38
aI27
aa(lp1514
I60
aI38
aI27
aa(lp1515
I60
aI3
aI27
aa(lp1516
I60
aI3
aI38
aa(lp1517
I60
aI4
aI27
aa(lp1518
I60
aI4
aI3
aa(lp1519
I127
aI75
aI11
aa(lp1520
I29
aI75
aI11
aa(lp1521
I29
aI127
aI11
aa(lp1522
I29
aI127
aI75
aa(lp1523
I29
aI4
aI11
aa(lp1524
I29
aI4
aI75
aa(lp1525
I29
aI36
aI11
aa(lp1526
I29
aI4
aI36
aa(lp1527
I29
aI76
aI11
aa(lp1528
I29
aI76
aI36
aa(lp1529
I76
aI4
aI36
aa(lp1530
I29
aI76
aI4
aa(lp1531
I29
aI92
aI75
aa(lp1532
I29
aI4
aI92
aa(lp1533
I29
aI127
aI98
aa(lp1534
I29
aI76
aI98
aa(lp1535
I29
aI76
aI127
aa(lp1536
I29
aI104
aI75
aa(lp1537
I29
aI104
aI92
aa(lp1538
I29
aI104
aI127
aa(lp1539
I29
aI127
aI92
aa(lp1540
I29
aI92
aI98
aa(lp1541
I4
aI92
aI98
aa(lp1542
I29
aI4
aI98
aa(lp1543
I16
aI45
aI15
aa(lp1544
I16
aI55
aI15
aa(lp1545
I16
aI55
aI45
aa(lp1546
I16
aI7
aI15
aa(lp1547
I16
aI7
aI55
aa(lp1548
I16
aI45
aI32
aa(lp1549
I16
aI55
aI32
aa(lp1550
I16
aI6
aI32
aa(lp1551
I16
aI72
aI32
aa(lp1552
I16
aI72
aI6
aa(lp1553
I16
aI15
aI40
aa(lp1554
I16
aI112
aI40
aa(lp1555
I16
aI112
aI15
aa(lp1556
I16
aI45
aI40
aa(lp1557
I16
aI112
aI45
aa(lp1558
I16
aI72
aI40
aa(lp1559
I16
aI72
aI45
aa(lp1560
I16
aI26
aI40
aa(lp1561
I16
aI72
aI26
aa(lp1562
I16
aI81
aI32
aa(lp1563
I16
aI45
aI81
aa(lp1564
I16
aI72
aI81
aa(lp1565
I16
aI56
aI6
aa(lp1566
I16
aI26
aI6
aa(lp1567
I16
aI26
aI56
aa(lp1568
I16
aI72
aI56
aa(lp1569
I16
aI56
aI44
aa(lp1570
I16
aI26
aI44
aa(lp1571
I16
aI72
aI44
aa(lp1572
I12
aI139
aI55
aa(lp1573
I12
aI7
aI55
aa(lp1574
I12
aI7
aI139
aa(lp1575
I12
aI67
aI55
aa(lp1576
I12
aI67
aI139
aa(lp1577
I12
aI55
aI32
aa(lp1578
I12
aI67
aI32
aa(lp1579
I12
aI139
aI21
aa(lp1580
I12
aI67
aI21
aa(lp1581
I12
aI16
aI32
aa(lp1582
I12
aI16
aI55
aa(lp1583
I12
aI16
aI7
aa(lp1584
I12
aI21
aI51
aa(lp1585
I12
aI139
aI51
aa(lp1586
I12
aI7
aI51
aa(lp1587
I12
aI7
aI21
aa(lp1588
I12
aI6
aI32
aa(lp1589
I12
aI16
aI6
aa(lp1590
I12
aI32
aI23
aa(lp1591
I12
aI6
aI23
aa(lp1592
I12
aI67
aI23
aa(lp1593
I12
aI21
aI25
aa(lp1594
I12
aI13
aI25
aa(lp1595
I12
aI13
aI21
aa(lp1596
I12
aI7
aI13
aa(lp1597
I12
aI64
aI25
aa(lp1598
I12
aI64
aI21
aa(lp1599
I12
aI67
aI25
aa(lp1600
I12
aI67
aI64
aa(lp1601
I6
aI25
aI23
aa(lp1602
I12
aI25
aI23
aa(lp1603
I12
aI6
aI25
aa(lp1604
I12
aI30
aI25
aa(lp1605
I12
aI30
aI13
aa(lp1606
I12
aI7
aI30
aa(lp1607
I179
aI173
aI199
aa(lp1608
I179
aI181
aI199
aa(lp1609
I179
aI181
aI173
aa(lp1610
I179
aI94
aI199
aa(lp1611
I179
aI173
aI94
aa(lp1612
I179
aI173
aI62
aa(lp1613
I179
aI149
aI62
aa(lp1614
I179
aI149
aI173
aa(lp1615
I179
aI181
aI62
aa(lp1616
I179
aI94
aI148
aa(lp1617
I179
aI181
aI148
aa(lp1618
I179
aI181
aI94
aa(lp1619
I179
aI180
aI62
aa(lp1620
I179
aI181
aI180
aa(lp1621
I154
aI94
aI148
aa(lp1622
I179
aI154
aI148
aa(lp1623
I179
aI154
aI94
aa(lp1624
I179
aI173
aI154
aa(lp1625
I179
aI149
aI148
aa(lp1626
I179
aI149
aI154
aa(lp1627
I180
aI164
aI148
aa(lp1628
I179
aI164
aI148
aa(lp1629
I179
aI180
aI148
aa(lp1630
I179
aI180
aI164
aa(lp1631
I179
aI148
aI183
aa(lp1632
I179
aI181
aI183
aa(lp1633
I179
aI180
aI183
aa(lp1634
I179
aI160
aI62
aa(lp1635
I179
aI180
aI160
aa(lp1636
I179
aI142
aI148
aa(lp1637
I179
aI142
aI164
aa(lp1638
I179
aI149
aI142
aa(lp1639
I179
aI142
aI62
aa(lp1640
I179
aI160
aI142
aa(lp1641
I179
aI160
aI164
aa(lp1642
I129
aI100
aI101
aa(lp1643
I168
aI100
aI101
aa(lp1644
I168
aI129
aI101
aa(lp1645
I168
aI129
aI100
aa(lp1646
I129
aI166
aI143
aa(lp1647
I168
aI166
aI143
aa(lp1648
I168
aI129
aI143
aa(lp1649
I168
aI129
aI166
aa(lp1650
I168
aI101
aI166
aa(lp1651
I168
aI63
aI143
aa(lp1652
I168
aI165
aI143
aa(lp1653
I168
aI165
aI63
aa(lp1654
I89
aI165
aI143
aa(lp1655
I168
aI89
aI143
aa(lp1656
I168
aI89
aI165
aa(lp1657
I168
aI100
aI165
aa(lp1658
I168
aI89
aI100
aa(lp1659
I168
aI100
aI63
aa(lp1660
I168
aI101
aI63
aa(lp1661
I168
aI166
aI63
aa(lp1662
I175
aI191
aI15
aa(lp1663
I175
aI24
aI15
aa(lp1664
I175
aI24
aI191
aa(lp1665
I175
aI55
aI15
aa(lp1666
I175
aI24
aI55
aa(lp1667
I175
aI68
aI174
aa(lp1668
I175
aI191
aI174
aa(lp1669
I175
aI191
aI68
aa(lp1670
I175
aI24
aI174
aa(lp1671
I175
aI112
aI15
aa(lp1672
I175
aI55
aI112
aa(lp1673
I175
aI97
aI15
aa(lp1674
I175
aI112
aI97
aa(lp1675
I175
aI191
aI97
aa(lp1676
I175
aI68
aI176
aa(lp1677
I175
aI191
aI176
aa(lp1678
I175
aI174
aI159
aa(lp1679
I175
aI68
aI159
aa(lp1680
I175
aI24
aI159
aa(lp1681
I175
aI97
aI171
aa(lp1682
I175
aI112
aI171
aa(lp1683
I175
aI191
aI171
aa(lp1684
I175
aI176
aI171
aa(lp1685
I175
aI7
aI55
aa(lp1686
I175
aI24
aI7
aa(lp1687
I175
aI112
aI65
aa(lp1688
I175
aI55
aI65
aa(lp1689
I175
aI171
aI106
aa(lp1690
I175
aI176
aI106
aa(lp1691
I175
aI112
aI106
aa(lp1692
I175
aI176
aI200
aa(lp1693
I175
aI68
aI200
aa(lp1694
I175
aI159
aI200
aa(lp1695
I175
aI55
aI159
aa(lp1696
I175
aI139
aI159
aa(lp1697
I175
aI139
aI55
aa(lp1698
I175
aI159
aI51
aa(lp1699
I175
aI55
aI51
aa(lp1700
I175
aI7
aI51
aa(lp1701
I175
aI24
aI51
aa(lp1702
I175
aI176
aI65
aa(lp1703
I175
aI138
aI65
aa(lp1704
I175
aI138
aI176
aa(lp1705
I175
aI112
aI138
aa(lp1706
I175
aI139
aI65
aa(lp1707
I175
aI139
aI176
aa(lp1708
I175
aI138
aI106
aa(lp1709
I175
aI139
aI200
aa(lp1710
I87
aI41
aI11
aa(lp1711
I87
aI39
aI11
aa(lp1712
I87
aI39
aI41
aa(lp1713
I78
aI41
aI103
aa(lp1714
I87
aI41
aI103
aa(lp1715
I87
aI78
aI103
aa(lp1716
I87
aI78
aI41
aa(lp1717
I87
aI75
aI11
aa(lp1718
I87
aI39
aI75
aa(lp1719
I76
aI190
aI103
aa(lp1720
I87
aI190
aI103
aa(lp1721
I87
aI76
aI103
aa(lp1722
I87
aI76
aI190
aa(lp1723
I146
aI190
aI103
aa(lp1724
I87
aI146
aI103
aa(lp1725
I87
aI146
aI190
aa(lp1726
I87
aI78
aI146
aa(lp1727
I87
aI105
aI190
aa(lp1728
I87
aI75
aI190
aa(lp1729
I87
aI75
aI105
aa(lp1730
I87
aI39
aI105
aa(lp1731
I87
aI146
aI105
aa(lp1732
I87
aI97
aI105
aa(lp1733
I87
aI39
aI97
aa(lp1734
I78
aI39
aI97
aa(lp1735
I87
aI78
aI97
aa(lp1736
I87
aI78
aI39
aa(lp1737
I87
aI76
aI11
aa(lp1738
I87
aI29
aI11
aa(lp1739
I87
aI29
aI76
aa(lp1740
I87
aI90
aI11
aa(lp1741
I87
aI90
aI41
aa(lp1742
I87
aI90
aI76
aa(lp1743
I87
aI127
aI190
aa(lp1744
I87
aI127
aI75
aa(lp1745
I87
aI127
aI11
aa(lp1746
I87
aI90
aI103
aa(lp1747
I87
aI131
aI105
aa(lp1748
I87
aI131
aI146
aa(lp1749
I87
aI78
aI131
aa(lp1750
I87
aI131
aI97
aa(lp1751
I87
aI29
aI127
aa(lp1752
I87
aI76
aI127
aa(lp1753
I43
aI126
aI169
aa(lp1754
I43
aI82
aI169
aa(lp1755
I43
aI82
aI126
aa(lp1756
I144
aI100
aI169
aa(lp1757
I43
aI100
aI169
aa(lp1758
I43
aI144
aI169
aa(lp1759
I43
aI144
aI100
aa(lp1760
I43
aI82
aI144
aa(lp1761
I43
aI100
aI125
aa(lp1762
I43
aI144
aI125
aa(lp1763
I43
aI144
aI102
aa(lp1764
I43
aI82
aI102
aa(lp1765
I19
aI38
aI27
aa(lp1766
I19
aI39
aI27
aa(lp1767
I19
aI39
aI38
aa(lp1768
I19
aI26
aI40
aa(lp1769
I19
aI54
aI40
aa(lp1770
I19
aI54
aI26
aa(lp1771
I19
aI97
aI40
aa(lp1772
I19
aI110
aI40
aa(lp1773
I19
aI110
aI97
aa(lp1774
I19
aI15
aI40
aa(lp1775
I19
aI97
aI15
aa(lp1776
I19
aI15
aI27
aa(lp1777
I19
aI1
aI27
aa(lp1778
I19
aI1
aI15
aa(lp1779
I19
aI16
aI40
aa(lp1780
I19
aI16
aI15
aa(lp1781
I19
aI16
aI26
aa(lp1782
I19
aI53
aI27
aa(lp1783
I19
aI53
aI15
aa(lp1784
I19
aI39
aI53
aa(lp1785
I19
aI97
aI53
aa(lp1786
I19
aI39
aI97
aa(lp1787
I8
aI5
aI31
aa(lp1788
I8
aI54
aI31
aa(lp1789
I8
aI54
aI5
aa(lp1790
I8
aI31
aI59
aa(lp1791
I8
aI41
aI59
aa(lp1792
I8
aI41
aI31
aa(lp1793
I8
aI5
aI59
aa(lp1794
I8
aI5
aI41
aa(lp1795
I8
aI39
aI41
aa(lp1796
I8
aI61
aI41
aa(lp1797
I8
aI61
aI39
aa(lp1798
I8
aI61
aI5
aa(lp1799
I8
aI110
aI31
aa(lp1800
I8
aI54
aI110
aa(lp1801
I8
aI31
aI103
aa(lp1802
I8
aI41
aI103
aa(lp1803
I8
aI78
aI103
aa(lp1804
I8
aI78
aI31
aa(lp1805
I8
aI78
aI41
aa(lp1806
I8
aI78
aI110
aa(lp1807
I8
aI87
aI41
aa(lp1808
I8
aI87
aI39
aa(lp1809
I8
aI87
aI78
aa(lp1810
I8
aI78
aI39
aa(lp1811
I8
aI39
aI38
aa(lp1812
I8
aI61
aI38
aa(lp1813
I8
aI39
aI97
aa(lp1814
I8
aI19
aI97
aa(lp1815
I8
aI19
aI39
aa(lp1816
I8
aI110
aI97
aa(lp1817
I8
aI19
aI110
aa(lp1818
I8
aI110
aI40
aa(lp1819
I8
aI54
aI40
aa(lp1820
I8
aI19
aI40
aa(lp1821
I8
aI19
aI54
aa(lp1822
I8
aI78
aI97
aa(lp1823
I14
aI25
aI23
aa(lp1824
I14
aI6
aI23
aa(lp1825
I14
aI6
aI25
aa(lp1826
I14
aI70
aI23
aa(lp1827
I14
aI70
aI25
aa(lp1828
I14
aI37
aI23
aa(lp1829
I14
aI6
aI37
aa(lp1830
I14
aI56
aI37
aa(lp1831
I14
aI56
aI6
aa(lp1832
I14
aI44
aI37
aa(lp1833
I14
aI56
aI44
aa(lp1834
I14
aI44
aI6
aa(lp1835
I14
aI26
aI6
aa(lp1836
I14
aI26
aI44
aa(lp1837
I28
aI38
aI27
aa(lp1838
I28
aI3
aI27
aa(lp1839
I28
aI3
aI38
aa(lp1840
I28
aI2
aI27
aa(lp1841
I28
aI2
aI3
aa(lp1842
I28
aI60
aI38
aa(lp1843
I28
aI60
aI3
aa(lp1844
I60
aI89
aI3
aa(lp1845
I28
aI89
aI3
aa(lp1846
I28
aI60
aI89
aa(lp1847
I108
aI101
aI122
aa(lp1848
I108
aI129
aI122
aa(lp1849
I108
aI129
aI101
aa(lp1850
I144
aI101
aI122
aa(lp1851
I108
aI144
aI122
aa(lp1852
I108
aI144
aI101
aa(lp1853
I108
aI100
aI101
aa(lp1854
I108
aI129
aI100
aa(lp1855
I108
aI126
aI169
aa(lp1856
I108
aI43
aI169
aa(lp1857
I108
aI43
aI126
aa(lp1858
I108
aI100
aI169
aa(lp1859
I108
aI43
aI100
aa(lp1860
I126
aI169
aI122
aa(lp1861
I108
aI169
aI122
aa(lp1862
I108
aI126
aI122
aa(lp1863
I144
aI169
aI122
aa(lp1864
I108
aI144
aI169
aa(lp1865
I108
aI144
aI100
aa(lp1866
I77
aI64
aI119
aa(lp1867
I77
aI124
aI119
aa(lp1868
I77
aI124
aI64
aa(lp1869
I77
aI70
aI119
aa(lp1870
I77
aI70
aI64
aa(lp1871
I108
aI124
aI37
aa(lp1872
I77
aI124
aI37
aa(lp1873
I77
aI108
aI37
aa(lp1874
I77
aI108
aI124
aa(lp1875
I77
aI64
aI23
aa(lp1876
I77
aI70
aI23
aa(lp1877
I77
aI37
aI23
aa(lp1878
I77
aI14
aI23
aa(lp1879
I77
aI14
aI37
aa(lp1880
I77
aI14
aI70
aa(lp1881
I77
aI71
aI23
aa(lp1882
I77
aI64
aI71
aa(lp1883
I77
aI124
aI71
aa(lp1884
I77
aI37
aI71
aa(lp1885
I124
aI37
aI71
aa(lp1886
I114
aI46
aI66
aa(lp1887
I114
aI69
aI66
aa(lp1888
I114
aI69
aI46
aa(lp1889
I114
aI2
aI66
aa(lp1890
I114
aI2
aI46
aa(lp1891
I2
aI69
aI46
aa(lp1892
I114
aI2
aI69
aa(lp1893
I114
aI167
aI66
aa(lp1894
I114
aI69
aI167
aa(lp1895
I114
aI30
aI66
aa(lp1896
I114
aI70
aI66
aa(lp1897
I114
aI70
aI30
aa(lp1898
I114
aI2
aI30
aa(lp1899
I114
aI2
aI70
aa(lp1900
I114
aI66
aI119
aa(lp1901
I114
aI167
aI119
aa(lp1902
I114
aI70
aI119
aa(lp1903
I77
aI167
aI119
aa(lp1904
I114
aI77
aI119
aa(lp1905
I114
aI77
aI167
aa(lp1906
I114
aI77
aI70
aa(lp1907
I114
aI167
aI166
aa(lp1908
I114
aI69
aI166
aa(lp1909
I48
aI76
aI36
aa(lp1910
I48
aI89
aI36
aa(lp1911
I48
aI89
aI76
aa(lp1912
I60
aI89
aI36
aa(lp1913
I48
aI60
aI36
aa(lp1914
I48
aI60
aI89
aa(lp1915
I48
aI4
aI36
aa(lp1916
I48
aI76
aI4
aa(lp1917
I48
aI60
aI4
aa(lp1918
I48
aI98
aI165
aa(lp1919
I48
aI76
aI165
aa(lp1920
I48
aI76
aI98
aa(lp1921
I48
aI89
aI165
aa(lp1922
I48
aI4
aI98
aa(lp1923
I48
aI29
aI98
aa(lp1924
I48
aI29
aI4
aa(lp1925
I48
aI29
aI76
aa(lp1926
I48
aI156
aI165
aa(lp1927
I48
aI156
aI98
aa(lp1928
I48
aI117
aI98
aa(lp1929
I48
aI117
aI156
aa(lp1930
I48
aI92
aI98
aa(lp1931
I48
aI117
aI92
aa(lp1932
I48
aI4
aI92
aa(lp1933
I48
aI4
aI117
aa(lp1934
I48
aI117
aI3
aa(lp1935
I48
aI4
aI3
aa(lp1936
I48
aI60
aI3
aa(lp1937
I48
aI156
aI79
aa(lp1938
I48
aI117
aI79
aa(lp1939
I48
aI3
aI79
aa(lp1940
I60
aI3
aI79
aa(lp1941
I48
aI60
aI79
aa(lp1942
I86
aI102
aI125
aa(lp1943
I86
aI144
aI125
aa(lp1944
I86
aI144
aI102
aa(lp1945
I86
aI43
aI125
aa(lp1946
I86
aI43
aI144
aa(lp1947
I86
aI43
aI102
aa(lp1948
I86
aI82
aI102
aa(lp1949
I86
aI43
aI82
aa(lp1950
I86
aI52
aI109
aa(lp1951
I86
aI125
aI109
aa(lp1952
I86
aI125
aI52
aa(lp1953
I86
aI102
aI109
aa(lp1954
I86
aI102
aI52
aa(lp1955
I86
aI90
aI52
aa(lp1956
I86
aI90
aI125
aa(lp1957
I86
aI61
aI52
aa(lp1958
I86
aI90
aI61
aa(lp1959
I90
aI61
aI125
aa(lp1960
I86
aI61
aI125
aa(lp1961
I86
aI5
aI52
aa(lp1962
I86
aI5
aI102
aa(lp1963
I86
aI61
aI5
aa(lp1964
I86
aI82
aI5
aa(lp1965
I33
aI70
aI25
aa(lp1966
I33
aI2
aI25
aa(lp1967
I33
aI2
aI70
aa(lp1968
I33
aI14
aI25
aa(lp1969
I33
aI14
aI70
aa(lp1970
I33
aI77
aI70
aa(lp1971
I33
aI77
aI14
aa(lp1972
I33
aI114
aI70
aa(lp1973
I33
aI114
aI2
aa(lp1974
I17
aI1
aI27
aa(lp1975
I17
aI2
aI27
aa(lp1976
I17
aI2
aI1
aa(lp1977
I17
aI28
aI27
aa(lp1978
I17
aI28
aI2
aa(lp1979
I57
aI2
aI3
aa(lp1980
I57
aI28
aI3
aa(lp1981
I57
aI28
aI2
aa(lp1982
I57
aI46
aI3
aa(lp1983
I57
aI69
aI3
aa(lp1984
I57
aI69
aI46
aa(lp1985
I57
aI2
aI46
aa(lp1986
I57
aI2
aI69
aa(lp1987
I57
aI114
aI69
aa(lp1988
I57
aI114
aI2
aa(lp1989
I57
aI3
aI79
aa(lp1990
I57
aI69
aI79
aa(lp1991
I57
aI166
aI143
aa(lp1992
I57
aI129
aI143
aa(lp1993
I57
aI129
aI166
aa(lp1994
I57
aI69
aI143
aa(lp1995
I57
aI69
aI166
aa(lp1996
I42
aI74
aI145
aa(lp1997
I42
aI82
aI145
aa(lp1998
I42
aI82
aI74
aa(lp1999
I42
aI44
aI74
aa(lp2000
I42
aI26
aI74
aa(lp2001
I42
aI26
aI44
aa(lp2002
I107
aI165
aI79
aa(lp2003
I107
aI156
aI79
aa(lp2004
I107
aI156
aI165
aa(lp2005
I107
aI48
aI79
aa(lp2006
I107
aI48
aI156
aa(lp2007
I107
aI48
aI165
aa(lp2008
I107
aI79
aI143
aa(lp2009
I107
aI165
aI143
aa(lp2010
I107
aI89
aI143
aa(lp2011
I107
aI89
aI165
aa(lp2012
I107
aI48
aI89
aa(lp2013
I107
aI60
aI79
aa(lp2014
I107
aI48
aI60
aa(lp2015
I107
aI60
aI89
aa(lp2016
I107
aI3
aI79
aa(lp2017
I107
aI57
aI79
aa(lp2018
I107
aI57
aI3
aa(lp2019
I107
aI60
aI3
aa(lp2020
I107
aI89
aI3
aa(lp2021
I107
aI69
aI143
aa(lp2022
I107
aI69
aI79
aa(lp2023
I107
aI57
aI143
aa(lp2024
I107
aI57
aI69
aa(lp2025
I73
aI100
aI125
aa(lp2026
I73
aI89
aI125
aa(lp2027
I73
aI89
aI100
aa(lp2028
I73
aI61
aI125
aa(lp2029
I73
aI86
aI125
aa(lp2030
I73
aI86
aI61
aa(lp2031
I73
aI36
aI125
aa(lp2032
I73
aI89
aI36
aa(lp2033
I73
aI90
aI125
aa(lp2034
I73
aI90
aI36
aa(lp2035
I73
aI90
aI61
aa(lp2036
I73
aI61
aI36
aa(lp2037
I73
aI36
aI38
aa(lp2038
I73
aI61
aI38
aa(lp2039
I73
aI60
aI38
aa(lp2040
I73
aI60
aI36
aa(lp2041
I73
aI60
aI89
aa(lp2042
I73
aI28
aI38
aa(lp2043
I73
aI28
aI60
aa(lp2044
I73
aI28
aI89
aa(lp2045
I33
aI108
aI129
aa(lp2046
I20
aI108
aI129
aa(lp2047
I20
aI33
aI129
aa(lp2048
I20
aI33
aI108
aa(lp2049
I33
aI77
aI108
aa(lp2050
I20
aI77
aI108
aa(lp2051
I20
aI33
aI77
aa(lp2052
I20
aI108
aI124
aa(lp2053
I20
aI77
aI124
aa(lp2054
I20
aI124
aI122
aa(lp2055
I20
aI129
aI122
aa(lp2056
I20
aI129
aI124
aa(lp2057
I108
aI124
aI122
aa(lp2058
I20
aI108
aI122
aa(lp2059
I20
aI77
aI70
aa(lp2060
I20
aI114
aI70
aa(lp2061
I20
aI114
aI77
aa(lp2062
I20
aI33
aI70
aa(lp2063
I20
aI33
aI114
aa(lp2064
I20
aI166
aI123
aa(lp2065
I20
aI124
aI123
aa(lp2066
I20
aI124
aI166
aa(lp2067
I20
aI129
aI123
aa(lp2068
I20
aI129
aI166
aa(lp2069
I20
aI57
aI166
aa(lp2070
I20
aI57
aI129
aa(lp2071
I20
aI167
aI166
aa(lp2072
I20
aI114
aI166
aa(lp2073
I20
aI114
aI167
aa(lp2074
I20
aI77
aI167
aa(lp2075
I20
aI114
aI2
aa(lp2076
I20
aI33
aI2
aa(lp2077
I20
aI57
aI2
aa(lp2078
I20
aI57
aI114
aa(lp2079
I57
aI33
aI2
aa(lp2080
I20
aI57
aI33
aa(lp2081
I20
aI80
aI166
aa(lp2082
I20
aI124
aI80
aa(lp2083
I20
aI167
aI80
aa(lp2084
I20
aI124
aI119
aa(lp2085
I20
aI77
aI119
aa(lp2086
I20
aI167
aI119
aa(lp2087
I20
aI69
aI166
aa(lp2088
I20
aI114
aI69
aa(lp2089
I20
aI57
aI69
aa(lp2090
I20
aI80
aI119
aa(lp2091
I47
aI28
aI2
aa(lp2092
I47
aI17
aI2
aa(lp2093
I47
aI17
aI28
aa(lp2094
I17
aI33
aI2
aa(lp2095
I47
aI33
aI2
aa(lp2096
I47
aI17
aI33
aa(lp2097
I47
aI57
aI2
aa(lp2098
I47
aI57
aI28
aa(lp2099
I47
aI57
aI33
aa(lp2100
I42
aI17
aI28
aa(lp2101
I47
aI42
aI28
aa(lp2102
I47
aI42
aI17
aa(lp2103
I47
aI108
aI129
aa(lp2104
I47
aI33
aI129
aa(lp2105
I47
aI33
aI108
aa(lp2106
I47
aI20
aI129
aa(lp2107
I47
aI20
aI33
aa(lp2108
I47
aI57
aI129
aa(lp2109
I47
aI20
aI57
aa(lp2110
I47
aI43
aI126
aa(lp2111
I47
aI108
aI126
aa(lp2112
I47
aI108
aI43
aa(lp2113
I47
aI129
aI100
aa(lp2114
I47
aI108
aI100
aa(lp2115
I47
aI43
aI100
aa(lp2116
I47
aI82
aI126
aa(lp2117
I47
aI43
aI82
aa(lp2118
I42
aI82
aI126
aa(lp2119
I47
aI42
aI126
aa(lp2120
I47
aI42
aI82
aa(lp2121
I42
aI43
aI82
aa(lp2122
I47
aI42
aI43
aa(lp2123
I9
aI1
aI27
aa(lp2124
I9
aI19
aI27
aa(lp2125
I9
aI19
aI1
aa(lp2126
I9
aI17
aI27
aa(lp2127
I9
aI17
aI1
aa(lp2128
I17
aI19
aI27
aa(lp2129
I9
aI17
aI19
aa(lp2130
I9
aI1
aI15
aa(lp2131
I9
aI19
aI15
aa(lp2132
I9
aI16
aI15
aa(lp2133
I9
aI19
aI16
aa(lp2134
I9
aI16
aI26
aa(lp2135
I9
aI19
aI26
aa(lp2136
I9
aI7
aI15
aa(lp2137
I9
aI7
aI1
aa(lp2138
I9
aI16
aI7
aa(lp2139
I9
aI2
aI1
aa(lp2140
I9
aI17
aI2
aa(lp2141
I9
aI26
aI6
aa(lp2142
I9
aI16
aI6
aa(lp2143
I9
aI12
aI7
aa(lp2144
I9
aI12
aI16
aa(lp2145
I9
aI30
aI25
aa(lp2146
I9
aI12
aI25
aa(lp2147
I9
aI12
aI30
aa(lp2148
I9
aI6
aI25
aa(lp2149
I9
aI12
aI6
aa(lp2150
I9
aI2
aI25
aa(lp2151
I9
aI2
aI30
aa(lp2152
I9
aI30
aI1
aa(lp2153
I9
aI14
aI25
aa(lp2154
I9
aI14
aI6
aa(lp2155
I9
aI14
aI26
aa(lp2156
I9
aI7
aI30
aa(lp2157
I42
aI17
aI26
aa(lp2158
I9
aI17
aI26
aa(lp2159
I9
aI42
aI26
aa(lp2160
I9
aI42
aI17
aa(lp2161
I18
aI38
aI27
aa(lp2162
I18
aI19
aI27
aa(lp2163
I18
aI19
aI38
aa(lp2164
I18
aI17
aI27
aa(lp2165
I18
aI17
aI19
aa(lp2166
I18
aI28
aI27
aa(lp2167
I18
aI28
aI38
aa(lp2168
I18
aI17
aI28
aa(lp2169
I18
aI61
aI38
aa(lp2170
I18
aI8
aI38
aa(lp2171
I18
aI8
aI61
aa(lp2172
I18
aI61
aI5
aa(lp2173
I18
aI8
aI5
aa(lp2174
I18
aI39
aI38
aa(lp2175
I18
aI19
aI39
aa(lp2176
I18
aI8
aI39
aa(lp2177
I18
aI8
aI19
aa(lp2178
I18
aI54
aI5
aa(lp2179
I18
aI8
aI54
aa(lp2180
I18
aI19
aI54
aa(lp2181
I18
aI86
aI5
aa(lp2182
I18
aI86
aI61
aa(lp2183
I18
aI17
aI26
aa(lp2184
I18
aI42
aI26
aa(lp2185
I18
aI42
aI17
aa(lp2186
I18
aI73
aI38
aa(lp2187
I18
aI73
aI61
aa(lp2188
I18
aI5
aI74
aa(lp2189
I18
aI54
aI74
aa(lp2190
I18
aI82
aI5
aa(lp2191
I18
aI86
aI82
aa(lp2192
I18
aI26
aI74
aa(lp2193
I18
aI42
aI74
aa(lp2194
I18
aI19
aI26
aa(lp2195
I18
aI9
aI26
aa(lp2196
I18
aI9
aI19
aa(lp2197
I18
aI9
aI17
aa(lp2198
I18
aI54
aI26
aa(lp2199
I18
aI82
aI74
aa(lp2200
I18
aI42
aI82
aa(lp2201
I121
aI89
aI3
aa(lp2202
I121
aI28
aI3
aa(lp2203
I121
aI28
aI89
aa(lp2204
I121
aI57
aI3
aa(lp2205
I121
aI57
aI28
aa(lp2206
I121
aI107
aI3
aa(lp2207
I121
aI107
aI89
aa(lp2208
I121
aI107
aI57
aa(lp2209
I121
aI57
aI129
aa(lp2210
I121
aI47
aI129
aa(lp2211
I121
aI47
aI57
aa(lp2212
I121
aI47
aI28
aa(lp2213
I121
aI129
aI143
aa(lp2214
I121
aI57
aI143
aa(lp2215
I121
aI107
aI143
aa(lp2216
I121
aI129
aI100
aa(lp2217
I121
aI168
aI100
aa(lp2218
I121
aI168
aI129
aa(lp2219
I121
aI89
aI100
aa(lp2220
I121
aI168
aI89
aa(lp2221
I121
aI47
aI100
aa(lp2222
I121
aI168
aI143
aa(lp2223
I121
aI89
aI143
aa(lp2224
I121
aI43
aI100
aa(lp2225
I121
aI47
aI43
aa(lp2226
I108
aI37
aI126
aa(lp2227
I10
aI37
aI126
aa(lp2228
I10
aI108
aI126
aa(lp2229
I10
aI108
aI37
aa(lp2230
I10
aI77
aI14
aa(lp2231
I10
aI33
aI14
aa(lp2232
I10
aI33
aI77
aa(lp2233
I10
aI77
aI108
aa(lp2234
I10
aI33
aI108
aa(lp2235
I10
aI44
aI37
aa(lp2236
I10
aI14
aI37
aa(lp2237
I10
aI14
aI44
aa(lp2238
I10
aI77
aI37
aa(lp2239
I10
aI126
aI145
aa(lp2240
I10
aI82
aI145
aa(lp2241
I10
aI82
aI126
aa(lp2242
I10
aI42
aI145
aa(lp2243
I10
aI42
aI82
aa(lp2244
I10
aI42
aI126
aa(lp2245
I10
aI74
aI145
aa(lp2246
I10
aI44
aI145
aa(lp2247
I10
aI44
aI74
aa(lp2248
I10
aI42
aI74
aa(lp2249
I10
aI42
aI44
aa(lp2250
I10
aI93
aI145
aa(lp2251
I10
aI126
aI93
aa(lp2252
I37
aI126
aI93
aa(lp2253
I10
aI37
aI93
aa(lp2254
I10
aI44
aI93
aa(lp2255
I34
aI17
aI33
aa(lp2256
I34
aI47
aI33
aa(lp2257
I34
aI47
aI17
aa(lp2258
I34
aI42
aI17
aa(lp2259
I34
aI47
aI42
aa(lp2260
I34
aI33
aI14
aa(lp2261
I34
aI10
aI14
aa(lp2262
I34
aI10
aI33
aa(lp2263
I34
aI33
aI108
aa(lp2264
I34
aI47
aI108
aa(lp2265
I34
aI10
aI108
aa(lp2266
I34
aI42
aI126
aa(lp2267
I34
aI47
aI126
aa(lp2268
I34
aI10
aI126
aa(lp2269
I34
aI10
aI42
aa(lp2270
I34
aI9
aI17
aa(lp2271
I34
aI9
aI42
aa(lp2272
I34
aI108
aI126
aa(lp2273
I34
aI14
aI25
aa(lp2274
I34
aI33
aI25
aa(lp2275
I34
aI9
aI25
aa(lp2276
I34
aI9
aI14
aa(lp2277
I34
aI33
aI2
aa(lp2278
I34
aI17
aI2
aa(lp2279
I34
aI9
aI2
aa(lp2280
I34
aI14
aI26
aa(lp2281
I34
aI9
aI26
aa(lp2282
I34
aI42
aI26
aa(lp2283
I34
aI2
aI25
aa(lp2284
I34
aI26
aI44
aa(lp2285
I34
aI14
aI44
aa(lp2286
I34
aI10
aI44
aa(lp2287
I34
aI42
aI44
aa(lp2288
I58
aI17
aI28
aa(lp2289
I58
aI18
aI28
aa(lp2290
I58
aI18
aI17
aa(lp2291
I58
aI42
aI28
aa(lp2292
I58
aI42
aI17
aa(lp2293
I58
aI42
aI43
aa(lp2294
I58
aI47
aI43
aa(lp2295
I58
aI47
aI42
aa(lp2296
I58
aI47
aI28
aa(lp2297
I58
aI43
aI82
aa(lp2298
I58
aI42
aI82
aa(lp2299
I58
aI28
aI38
aa(lp2300
I58
aI73
aI38
aa(lp2301
I58
aI73
aI28
aa(lp2302
I58
aI18
aI38
aa(lp2303
I58
aI18
aI73
aa(lp2304
I58
aI86
aI82
aa(lp2305
I58
aI86
aI43
aa(lp2306
I58
aI18
aI82
aa(lp2307
I58
aI18
aI86
aa(lp2308
I58
aI18
aI42
aa(lp2309
I58
aI121
aI43
aa(lp2310
I58
aI121
aI47
aa(lp2311
I58
aI121
aI28
aa(lp2312
I58
aI43
aI100
aa(lp2313
I58
aI121
aI100
aa(lp2314
I58
aI28
aI89
aa(lp2315
I58
aI73
aI89
aa(lp2316
I58
aI121
aI89
aa(lp2317
I58
aI43
aI125
aa(lp2318
I58
aI86
aI125
aa(lp2319
I58
aI73
aI125
aa(lp2320
I58
aI73
aI86
aa(lp2321
I58
aI86
aI61
aa(lp2322
I58
aI73
aI61
aa(lp2323
I58
aI18
aI61
aa(lp2324
I58
aI100
aI125
aa(lp2325
I58
aI73
aI100
aa(lp2326
I58
aI89
aI100
aa.